-----BEGIN RSA PRIVATE KEY-----
MIIJKAIBAAKCAgEAzYlueHZlbSqlLrVAnCyQx9xgnO7jSjK6wXqlbxkl0QZLyDnh
vNowZYnu7YZI3V+RuVzYbczlEr1qZpUeO8NF04mK1kFPJRinRiuiOtih+WwvDQd7
7RZJhjoAcfEeogt1OzOZg8QKF1AMGlUgk5zWma4VIS75ZM6G1b77qS3rge6L9NwZ
gthyQ1PvddYue4MNEpK+2ekZZq/GGZvd+yNP0Wq7kzcmydCgCF9EdLCZwt4BHmOS
ZM6BUxKv+PINZgO7Wp2tBBGigg9Mf/NXofjMHp7RI16xa2W9Q/Ct2A6rb5SAB10U
ddrtxiI+F+Jv7lNkHOCLbju7cEs+Y6XIbt1l7aVqBFpgo6cwFZ7DdLPHZkgb50hx
dnNdwncOR1syspTF544hbmkcb/8+weq+qgsD/57b/ZGrwb8ruByDz0LZiXzxxBRe
w9OhHZGFnuC0D1ciIvpifKe4R/kLcEgVW7yYp4W1BAZgiBJPgXArJTlUBrxamzsQ
m6N7GxlP+vTCny7IJsQ1KWu5BqkPv0T1+zD5vUT9/lAa+XBdDHhYVm0adr4dXIef
6ws+0zbpz8DyaD/Bg9KvRKdnziVc+pKwkWOVrFvZ6NvBex0i8Bgh4FrpkdjmrZMZ
uuCdex0CEayuYexgUqyMg9m0GwGqVNG6mVB4cCOg0rayaqEKrbtUSxNaD/MCAwEA
AQKCAgAnjPGQBqBf0Fv2z/P92WmGu/ZvXFyqU3aycmpRJZKsVTzR66lvkMDNWSx7
0mJFDvXYqHAROOM/pulJkho+P8Y4/XeU4P5c0hCmJRFTp4oLl/C53h3PsoE1bgXV
5yMQ5YmKedRpkZirgcDCdG0PWpfE/MWeHA7rgf5aNSTyGh7+YqvV02CpWAMsx4MF
ttA8/ivOziQhhIRZySsilGazw8jBMHulyXASV63jzok6txzvbY7jjR+HfGFQXgE0
s0c2wTMVLdA0Pzx5MH51BJtxVJHato7h8n/LfclcwHyDXddJYlb8k8GzKAynGsG+
ENmfD7btA5xw+teHtULtI+KcysepCeVXW7Fr7PFJe1XOx1c24WrFpjeGdnG3PdqA
Y9YbjMCD/GpCUICla3N6iRDG3imY+DUWcExVjUo6TUbQ4ofQT4WF7+2Yzg6MRqYu
41jgF+voCXS4BH8e+ngEjd8VLHma7FPuWujodCERsvxZ7aLXBcZCH1Lje9Y8a79x
RGX83pVHTWFRyo4wKBpRUz+hwH7MjYdfE2Q+Zl153pXw3au9jX8PUMhx9swWPGRw
CvLPwtTwrezzdFeXg4wfJwWnvqhKIViery4z3rdjh5Zke/9+7gXmFbZ8w+QUkXXq
cnBEJySTvpI4B9abpcEI4OO84L/A6ENDO10W4ZGfm5aD2m0vIQKCAQEA6nZAmsSr
T1CcgrWNcY6civ8o5cMF8fM9ib5QvibRlJN9dpcZPr6+Pp2UPCkjVowk/FybP1Kw
sqA0aXOL3VR03YpLrqdUDpe9YiFCa3ttDX0pTOdU9QW2RbOrNQVurKhzNETd37cJ
0RYBOHJY/RxA0F8l16wSr1jTO/SRbWkFJYZS/OaH1B6gCxz6H1IgfKJddrvFZsd8
6PnLtqsPnsXuxugqHu3ENddRqiiSNyGnqpGu0jQpPBrQEQQN5o8/X9rfNfAobChH
Nii0va7MHudwaTTo2ytUzEV+v0kueMNU9YXgJgxzSzf1/VQC+HoNI4Vbs9XCbOWV
z2FVBwXM+0cIMQKCAQEA4Gr1pQAymJq/9p2fiWSR8TVdrYCwvAnBu8QSqSzweNZC
SRt7Nkhhljm7M2DuUOioMaFAT9CnyD2nJyKSAqqOngb0vo7C53UzgFu+QFMtUx/Z
t/C96WcLYrErXfnB/sTq0Gp4tpoo1S3FZecabhlZyv1O08WXiNCcEX1VMQz2+iF9
+n2PjFuEomeWHxBWCwfB9/S0pKVHP/7833sQ8Dfsm2EwtPy3v58ln3UguaUDIe5V
r0TmKr8kDrYgbw1ZpBOd9Wbbvj3vIN34OPoSIrcar67DCp7qYq77LYAhngfdQGed
MUMsbU1dODWf0kwP7mncTr3mPByQUHa3ImjvJPv1YwKCAQBYa04Dz8U2/RR46pSz
zW9Vr9Ixi7GTRALiDkaO3z7MRC7daTAZDH/cRzre0TjFa8aK8TWO1NVUF7yMRAnr
5uzHm17dN7coZasC9b4BoKNIofnQSbEtUgEiGhanwSuyqzf+7zWpJ3LpSd4d9ml+
0ofSzP8NbZQCUoIeqyWo2CEbvKNRQnLY2M/MQRpGc4dS2TxcCYXxM6v0hDeB5NLY
MpbQpj80OMB0+YWPoQs7BVMgrR37obYnN4ld0WSYnU7uDDF/OtlTqIDqeMFogyHx
SaCH3G8wMBAjlNWut59x5WAF033re2iDZlA7P9J6+DQ6QBGMKUHQJWiws2kIY/Sg
knIRAoIBAQCzlkR/Rxo2LthhZR/PFfEIQrl1Z9+GipRDSxPX2AOT33nqARjnhqK5
UfexlOcBTj2SgcTyWjp6LoQ9+Bc6FPzODyj5+UqVaJ/PHxuvZCCIPZu/6+I+Dlz5
HGhk6sJIu5JhOGLjVZhJiDhIZNkstBK8M1tKcvvh23aZNF/hQcu+vOCQfLxMCMyq
HhTvROZmK04Yu/V3MGBFISuBN32FjmtEqFEO9JGiwZuc8GFAzoEkPRLKkGtUV+Nl
9m8cD2XlvGESib5djjh3Z8oE5nFu4HJ1lne0XxmX4QlWDwxX51kx+fi7/FJoIZnw
qlD8PCwfkQ1g4eyFvCHskiPZYHnHce2bAoIBACW40wFIPiDRhjNywEi4miN6P+Xs
rlM9csmxw2GG6Z4c8H/Z4SNBRQmnj/F6PHsar6SGy9WlR9mNeR2XBn4Pyf/cNjTQ
bKzV5wPRm6P81SQjhIz4Mxdx1S30AeF1LdagWFiq0on7oRTH2SeKQspdpNeiTDbC
sBw4SVDKmGZYGZcuT3BdvvZFEW4qncSYuUM7l9bTmsbzid/v8zn/XDQrpdPYnptD
ljJETKQzlyrJLtTbyFlo3Osf1N4408u3rqhpw2SgKdyMiHndhxkF869Vycll+VMz
SzPU0wI62BIPWHDBJLnxGBTa+4kUSxP+oDvCfVYCmDcfDRew3MWCK9emJnU=
-----END RSA PRIVATE KEY-----
Certificate:
    Data:
        Version: 1 (0x0)
        Serial Number: 1 (0x1)
    Signature Algorithm: sha512WithRSAEncryption
        Issuer: C=DE, ST=Example, L=For Instance, O=Beispiel GmbH, CN=beispiel.example.org
        Validity
            Not Before: Feb 15 14:27:56 2016 GMT
            Not After : Feb  2 14:27:56 2066 GMT
        Subject: C=DE, ST=Instance-Example, L=Examplecity, O=For Instance GmbH, OU=The Example Unit, CN=subcert.example.org/emailAddress=subcert@example.org
        Subject Public Key Info:
            Public Key Algorithm: rsaEncryption
                Public-Key: (4096 bit)
                Modulus:
                    00:cd:89:6e:78:76:65:6d:2a:a5:2e:b5:40:9c:2c:
                    90:c7:dc:60:9c:ee:e3:4a:32:ba:c1:7a:a5:6f:19:
                    25:d1:06:4b:c8:39:e1:bc:da:30:65:89:ee:ed:86:
                    48:dd:5f:91:b9:5c:d8:6d:cc:e5:12:bd:6a:66:95:
                    1e:3b:c3:45:d3:89:8a:d6:41:4f:25:18:a7:46:2b:
                    a2:3a:d8:a1:f9:6c:2f:0d:07:7b:ed:16:49:86:3a:
                    00:71:f1:1e:a2:0b:75:3b:33:99:83:c4:0a:17:50:
                    0c:1a:55:20:93:9c:d6:99:ae:15:21:2e:f9:64:ce:
                    86:d5:be:fb:a9:2d:eb:81:ee:8b:f4:dc:19:82:d8:
                    72:43:53:ef:75:d6:2e:7b:83:0d:12:92:be:d9:e9:
                    19:66:af:c6:19:9b:dd:fb:23:4f:d1:6a:bb:93:37:
                    26:c9:d0:a0:08:5f:44:74:b0:99:c2:de:01:1e:63:
                    92:64:ce:81:53:12:af:f8:f2:0d:66:03:bb:5a:9d:
                    ad:04:11:a2:82:0f:4c:7f:f3:57:a1:f8:cc:1e:9e:
                    d1:23:5e:b1:6b:65:bd:43:f0:ad:d8:0e:ab:6f:94:
                    80:07:5d:14:75:da:ed:c6:22:3e:17:e2:6f:ee:53:
                    64:1c:e0:8b:6e:3b:bb:70:4b:3e:63:a5:c8:6e:dd:
                    65:ed:a5:6a:04:5a:60:a3:a7:30:15:9e:c3:74:b3:
                    c7:66:48:1b:e7:48:71:76:73:5d:c2:77:0e:47:5b:
                    32:b2:94:c5:e7:8e:21:6e:69:1c:6f:ff:3e:c1:ea:
                    be:aa:0b:03:ff:9e:db:fd:91:ab:c1:bf:2b:b8:1c:
                    83:cf:42:d9:89:7c:f1:c4:14:5e:c3:d3:a1:1d:91:
                    85:9e:e0:b4:0f:57:22:22:fa:62:7c:a7:b8:47:f9:
                    0b:70:48:15:5b:bc:98:a7:85:b5:04:06:60:88:12:
                    4f:81:70:2b:25:39:54:06:bc:5a:9b:3b:10:9b:a3:
                    7b:1b:19:4f:fa:f4:c2:9f:2e:c8:26:c4:35:29:6b:
                    b9:06:a9:0f:bf:44:f5:fb:30:f9:bd:44:fd:fe:50:
                    1a:f9:70:5d:0c:78:58:56:6d:1a:76:be:1d:5c:87:
                    9f:eb:0b:3e:d3:36:e9:cf:c0:f2:68:3f:c1:83:d2:
                    af:44:a7:67:ce:25:5c:fa:92:b0:91:63:95:ac:5b:
                    d9:e8:db:c1:7b:1d:22:f0:18:21:e0:5a:e9:91:d8:
                    e6:ad:93:19:ba:e0:9d:7b:1d:02:11:ac:ae:61:ec:
                    60:52:ac:8c:83:d9:b4:1b:01:aa:54:d1:ba:99:50:
                    78:70:23:a0:d2:b6:b2:6a:a1:0a:ad:bb:54:4b:13:
                    5a:0f:f3
                Exponent: 65537 (0x10001)
    Signature Algorithm: sha512WithRSAEncryption
         2d:1c:49:41:1a:4f:dc:d8:5c:b1:fa:ca:53:38:86:26:6e:56:
         a5:6d:2e:1d:0d:74:64:0e:89:c3:3a:c7:1d:01:6e:d1:93:b2:
         c9:37:01:6a:ae:31:42:96:05:d7:df:fd:01:f8:bc:f3:f3:4c:
         cd:75:ae:16:00:61:78:f2:67:c5:b1:76:76:16:39:ba:d2:6b:
         09:ad:99:2b:22:ce:56:89:4d:08:ca:8c:76:4c:50:6b:83:c9:
         46:9b:f5:9f:2d:e2:7f:e5:72:aa:76:56:c4:67:83:45:26:b7:
         e2:ae:f7:1e:61:c9:aa:2e:8d:b8:59:42:84:37:25:c8:16:92:
         d6:d5
-----BEGIN CERTIFICATE-----
MIIEGjCCA4MCAQEwDQYJKoZIhvcNAQENBQAwbTELMAkGA1UEBhMCREUxEDAOBgNV
BAgMB0V4YW1wbGUxFTATBgNVBAcMDEZvciBJbnN0YW5jZTEWMBQGA1UECgwNQmVp
c3BpZWwgR21iSDEdMBsGA1UEAwwUYmVpc3BpZWwuZXhhbXBsZS5vcmcwIBcNMTYw
MjE1MTQyNzU2WhgPMjA2NjAyMDIxNDI3NTZaMIG3MQswCQYDVQQGEwJERTEZMBcG
A1UECAwQSW5zdGFuY2UtRXhhbXBsZTEUMBIGA1UEBwwLRXhhbXBsZWNpdHkxGjAY
BgNVBAoMEUZvciBJbnN0YW5jZSBHbWJIMRkwFwYDVQQLDBBUaGUgRXhhbXBsZSBV
bml0MRwwGgYDVQQDDBNzdWJjZXJ0LmV4YW1wbGUub3JnMSIwIAYJKoZIhvcNAQkB
FhNzdWJjZXJ0QGV4YW1wbGUub3JnMIICIjANBgkqhkiG9w0BAQEFAAOCAg8AMIIC
CgKCAgEAzYlueHZlbSqlLrVAnCyQx9xgnO7jSjK6wXqlbxkl0QZLyDnhvNowZYnu
7YZI3V+RuVzYbczlEr1qZpUeO8NF04mK1kFPJRinRiuiOtih+WwvDQd77RZJhjoA
cfEeogt1OzOZg8QKF1AMGlUgk5zWma4VIS75ZM6G1b77qS3rge6L9NwZgthyQ1Pv
ddYue4MNEpK+2ekZZq/GGZvd+yNP0Wq7kzcmydCgCF9EdLCZwt4BHmOSZM6BUxKv
+PINZgO7Wp2tBBGigg9Mf/NXofjMHp7RI16xa2W9Q/Ct2A6rb5SAB10UddrtxiI+
F+Jv7lNkHOCLbju7cEs+Y6XIbt1l7aVqBFpgo6cwFZ7DdLPHZkgb50hxdnNdwncO
R1syspTF544hbmkcb/8+weq+qgsD/57b/ZGrwb8ruByDz0LZiXzxxBRew9OhHZGF
nuC0D1ciIvpifKe4R/kLcEgVW7yYp4W1BAZgiBJPgXArJTlUBrxamzsQm6N7GxlP
+vTCny7IJsQ1KWu5BqkPv0T1+zD5vUT9/lAa+XBdDHhYVm0adr4dXIef6ws+0zbp
z8DyaD/Bg9KvRKdnziVc+pKwkWOVrFvZ6NvBex0i8Bgh4FrpkdjmrZMZuuCdex0C
EayuYexgUqyMg9m0GwGqVNG6mVB4cCOg0rayaqEKrbtUSxNaD/MCAwEAATANBgkq
hkiG9w0BAQ0FAAOBgQAtHElBGk/c2Fyx+spTOIYmblalbS4dDXRkDonDOscdAW7R
k7LJNwFqrjFClgXX3/0B+Lzz80zNda4WAGF48mfFsXZ2Fjm60msJrZkrIs5WiU0I
yox2TFBrg8lGm/WfLeJ/5XKqdlbEZ4NFJrfirvceYcmqLo24WUKENyXIFpLW1Q==
-----END CERTIFICATE-----
