-----BEGIN PRIVATE KEY-----
MIICeAIBADANBgkqhkiG9w0BAQEFAASCAmIwggJeAgEAAoGBALRXOpwrjjFzFZtb
aTtB+3kNrgrqYkye6CqvrOODZwXsljr/pduYj6bYh5OdznAFqgeeCpkqEf/2p5mD
XlqE4cDoL2opLk7LrdmVDqX9rUkGcGf6hwTp1EAllESBIUt6LdSbL7Y5goYq1E++
/fKSYRIniCbWp9ahTLH8hjDcw48tAgMBAAECgYAiNl4vHHA4X13dAEWBcW4UtAyt
k3Ocl5Tx7Cv/aYFU9WI2xSMg+ttdyrxFu+1bASgVk9zs27dYeOGo1OxEfesZzQkT
mbzvYCdYk9wAWKXQwpp78HZyEsKVipIxO+riH9ph7SFQBzB5NoADPoqwahOmeQQW
sE3oTJRa9O+JR3muXQJBAOOt4dj+1Rwmdy83j9uOLLfO75l2pJd/hq5gN7+eNFks
R68cbhFGkrOU13dVLquyqxAoaKc2PgZS+RfGRrohjm8CQQDKxeuqYXyrYBU4jNAS
TgcR4lbb8HiC1AyQrdiJVtH4qLpqk92M7muHXZQGOXRizHQMrRDY+PcgLoFAnRzJ
j0ojAkEA3rqL5ivlbtRyY86G/NHpDSdzXT2jZlFq/8tAvkOWEmYu+i9lvaC8gtFo
t2Stc2olzni5aFq38pfY9lkRd6S8IQJBAJe3LJPnqwrish4Epa38eae07P5U1yY0
GE6r9EcWEbZ2MDyL9Al9XjEDIDzkAiPmC7JsTx24cda/VPAOXbqlnncCQQCCevzg
rrnTz0/3iLWkxowiKCE1EvbVALDxPwHi0zvjXbGZs8BodLxeChpJzFImbxRVAIrp
WvZOuLqhAKjL7OOT
-----END PRIVATE KEY-----
Certificate:
    Data:
        Version: 3 (0x2)
        Serial Number: 14180722474914962380 (0xc4cc0bf54fb45bcc)
    Signature Algorithm: sha256WithRSAEncryption
        Issuer: C=DE, ST=Example, L=For Instance, O=Beispiel GmbH, CN=beispiel.example.org
        Validity
            Not Before: Feb  1 01:45:27 2016 GMT
            Not After : Jan 24 01:45:27 2046 GMT
        Subject: C=DE, ST=Example, L=For Instance, O=Beispiel GmbH, CN=beispiel.example.org
        Subject Public Key Info:
            Public Key Algorithm: rsaEncryption
                Public-Key: (1024 bit)
                Modulus:
                    00:b4:57:3a:9c:2b:8e:31:73:15:9b:5b:69:3b:41:
                    fb:79:0d:ae:0a:ea:62:4c:9e:e8:2a:af:ac:e3:83:
                    67:05:ec:96:3a:ff:a5:db:98:8f:a6:d8:87:93:9d:
                    ce:70:05:aa:07:9e:0a:99:2a:11:ff:f6:a7:99:83:
                    5e:5a:84:e1:c0:e8:2f:6a:29:2e:4e:cb:ad:d9:95:
                    0e:a5:fd:ad:49:06:70:67:fa:87:04:e9:d4:40:25:
                    94:44:81:21:4b:7a:2d:d4:9b:2f:b6:39:82:86:2a:
                    d4:4f:be:fd:f2:92:61:12:27:88:26:d6:a7:d6:a1:
                    4c:b1:fc:86:30:dc:c3:8f:2d
                Exponent: 65537 (0x10001)
        X509v3 extensions:
            X509v3 Subject Key Identifier: 
                02:0A:B0:BC:21:63:C1:50:16:1E:8D:B7:F4:B0:1C:48:D8:E1:0A:2A
            X509v3 Authority Key Identifier: 
                keyid:02:0A:B0:BC:21:63:C1:50:16:1E:8D:B7:F4:B0:1C:48:D8:E1:0A:2A

            X509v3 Basic Constraints: 
                CA:TRUE
    Signature Algorithm: sha256WithRSAEncryption
         13:f1:33:5f:c7:d9:6c:20:a4:eb:f2:e5:e2:b5:e0:e8:b6:9c:
         c7:62:4a:39:53:83:11:98:cf:11:3d:58:09:d8:38:78:71:16:
         d4:24:cc:c8:2e:5a:2b:d3:94:6a:dc:ae:62:e7:81:6a:5f:04:
         84:ba:55:8c:dc:6b:ff:aa:78:4f:37:8e:fd:ba:b5:d1:27:83:
         47:29:30:92:63:85:53:f0:b1:b9:f4:c7:a8:b1:48:44:4e:30:
         6f:50:d3:35:14:87:59:d0:f8:ed:da:07:60:6c:de:6d:53:53:
         3d:d7:03:97:1f:6b:13:ce:92:49:20:57:4f:b0:87:30:76:66:
         d3:43
-----BEGIN CERTIFICATE-----
MIICqDCCAhGgAwIBAgIJAMTMC/VPtFvMMA0GCSqGSIb3DQEBCwUAMG0xCzAJBgNV
BAYTAkRFMRAwDgYDVQQIDAdFeGFtcGxlMRUwEwYDVQQHDAxGb3IgSW5zdGFuY2Ux
FjAUBgNVBAoMDUJlaXNwaWVsIEdtYkgxHTAbBgNVBAMMFGJlaXNwaWVsLmV4YW1w
bGUub3JnMB4XDTE2MDIwMTAxNDUyN1oXDTQ2MDEyNDAxNDUyN1owbTELMAkGA1UE
BhMCREUxEDAOBgNVBAgMB0V4YW1wbGUxFTATBgNVBAcMDEZvciBJbnN0YW5jZTEW
MBQGA1UECgwNQmVpc3BpZWwgR21iSDEdMBsGA1UEAwwUYmVpc3BpZWwuZXhhbXBs
ZS5vcmcwgZ8wDQYJKoZIhvcNAQEBBQADgY0AMIGJAoGBALRXOpwrjjFzFZtbaTtB
+3kNrgrqYkye6CqvrOODZwXsljr/pduYj6bYh5OdznAFqgeeCpkqEf/2p5mDXlqE
4cDoL2opLk7LrdmVDqX9rUkGcGf6hwTp1EAllESBIUt6LdSbL7Y5goYq1E++/fKS
YRIniCbWp9ahTLH8hjDcw48tAgMBAAGjUDBOMB0GA1UdDgQWBBQCCrC8IWPBUBYe
jbf0sBxI2OEKKjAfBgNVHSMEGDAWgBQCCrC8IWPBUBYejbf0sBxI2OEKKjAMBgNV
HRMEBTADAQH/MA0GCSqGSIb3DQEBCwUAA4GBABPxM1/H2WwgpOvy5eK14Oi2nMdi
SjlTgxGYzxE9WAnYOHhxFtQkzMguWivTlGrcrmLngWpfBIS6VYzca/+qeE83jv26
tdEng0cpMJJjhVPwsbn0x6ixSEROMG9Q0zUUh1nQ+O3aB2Bs3m1TUz3XA5cfaxPO
kkkgV0+whzB2ZtND
-----END CERTIFICATE-----
