; $Id: VBoxXPCOM-mangled.def $
;; @file
; VirtualBox XPCOM - Import library definition file.

;
; Copyright (C) 2018-2023 Oracle and/or its affiliates.
;
; This file is part of VirtualBox base platform packages, as
; available from https://www.virtualbox.org.
;
; This program is free software; you can redistribute it and/or
; modify it under the terms of the GNU General Public License
; as published by the Free Software Foundation, in version 3 of the
; License.
;
; This program is distributed in the hope that it will be useful, but
; WITHOUT ANY WARRANTY; without even the implied warranty of
; MERCHANTABILITY or FITNESS FOR A PARTICULAR PURPOSE.  See the GNU
; General Public License for more details.
;
; You should have received a copy of the GNU General Public License
; along with this program; if not, see <https://www.gnu.org/licenses>.
;
; SPDX-License-Identifier: GPL-3.0-only
;

LIBRARY VBoxXPCOM.dll
EXPORTS
    ;
    ; To regenerate run the following command line:
    ; nm -U ../../../out/darwin.amd64/debug/dist/VirtualBox.app/Contents/MacOS/VBoxXPCOM.dylib | kmk_sed -r -e 's/^[0-9a-fA-F]+ //' -e '/^[A-Z]/!d' | sort | kmk_sed -r -e 's/[SDBC] (.+)$/    \1 DATA/' -e 's/^[A-Z] /    /' -e 's/^    _/    /' >> VBoxXPCOM-mangled.def
    ;

    _ZN12nsCharTraitsIcE12sEmptyBufferE DATA
    _ZN12nsCharTraitsItE12sEmptyBufferE DATA
    NSGetStaticModuleInfo DATA
    VBoxNsxpgFastLoadService_ DATA
    _ZN17nsObsoleteAString16sCanonicalVTableE DATA
    _ZN18nsObsoleteACString16sCanonicalVTableE DATA
    _ZTV11nsHashtable DATA
    _ZTV11nsLocalFile DATA
    _ZTV11nsStringKey DATA
    _ZTV11nsVoidArray DATA
    _ZTV12nsCStringKey DATA
    _ZTV13nsStringArray DATA
    _ZTV14nsCStringArray DATA
    _ZTV14nsGetInterface DATA
    _ZTV14nsISupportsKey DATA
    _ZTV14nsXPTCStubBase DATA
    _ZTV15nsAutoVoidArray DATA
    _ZTV15nsQueryReferent DATA
    _ZTV15nsSupportsArray DATA
    _ZTV15nsWeakReference DATA
    _ZTV16nsQueryElementAt DATA
    _ZTV17nsArrayEnumerator DATA
    _ZTV17nsGetServiceByCID DATA
    _ZTV17nsObjectHashtable DATA
    _ZTV17nsUnionEnumerator DATA
    _ZTV18nsGetWeakReference DATA
    _ZTV19nsDirEnumeratorUnix DATA
    _ZTV19nsSupportsHashtable DATA
    _ZTV21nsCreateInstanceByCID DATA
    _ZTV21nsQueryArrayElementAt DATA
    _ZTV21nsSingletonEnumerator DATA
    _ZTV23nsSupportsWeakReference DATA
    _ZTV24nsGetServiceByContractID DATA
    _ZTV25nsDefaultStringComparator DATA
    _ZTV26nsDefaultCStringComparator DATA
    _ZTV28nsCreateInstanceByContractID DATA
    _ZTV28nsCreateInstanceFromCategory DATA
    _ZTV34nsCaseInsensitiveCStringComparator DATA
    _ZTV7nsIDKey DATA
    _ZTV9nsHashKey DATA
    _ZTV9nsVariant DATA
    VBoxNsllLL_MaxInt
    VBoxNsllLL_MaxUint
    VBoxNsllLL_MinInt
    VBoxNsllLL_Zero
    VBoxNsplPL_ArenaAllocate
    VBoxNsplPL_ArenaFinish
    VBoxNsplPL_ArenaGrow
    VBoxNsplPL_ArenaRelease
    VBoxNsplPL_CompactArenaPool
    VBoxNsplPL_CompareStrings
    VBoxNsplPL_CompareValues
    VBoxNsplPL_CreateEventQueue
    VBoxNsplPL_CreateMonitoredEventQueue
    VBoxNsplPL_CreateNativeEventQueue
    VBoxNsplPL_DHashAllocTable
    VBoxNsplPL_DHashClearEntryStub
    VBoxNsplPL_DHashFinalizeStub
    VBoxNsplPL_DHashFreeStringKey
    VBoxNsplPL_DHashFreeTable
    VBoxNsplPL_DHashGetKeyStub
    VBoxNsplPL_DHashGetStubOps
    VBoxNsplPL_DHashMatchEntryStub
    VBoxNsplPL_DHashMatchStringKey
    VBoxNsplPL_DHashMoveEntryStub
    VBoxNsplPL_DHashStringKey
    VBoxNsplPL_DHashTableDestroy
    VBoxNsplPL_DHashTableEnumerate
    VBoxNsplPL_DHashTableFinish
    VBoxNsplPL_DHashTableInit
    VBoxNsplPL_DHashTableOperate
    VBoxNsplPL_DHashTableRawRemove
    VBoxNsplPL_DHashTableSetAlphaBounds
    VBoxNsplPL_DHashVoidPtrKeyStub
    VBoxNsplPL_DequeueEvent
    VBoxNsplPL_DestroyEvent
    VBoxNsplPL_DestroyEventQueue
    VBoxNsplPL_EventAvailable
    VBoxNsplPL_EventLoop
    VBoxNsplPL_FavorPerformanceHint
    VBoxNsplPL_FinishArenaPool
    VBoxNsplPL_FreeArenaPool
    VBoxNsplPL_GetEvent
    VBoxNsplPL_GetEventOwner
    VBoxNsplPL_GetEventQueueMonitor
    VBoxNsplPL_GetEventQueueSelectFD
    VBoxNsplPL_HandleEvent
    VBoxNsplPL_HashString
    VBoxNsplPL_HashTableAdd
    VBoxNsplPL_HashTableDestroy
    VBoxNsplPL_HashTableDump
    VBoxNsplPL_HashTableEnumerateEntries
    VBoxNsplPL_HashTableLookup
    VBoxNsplPL_HashTableLookupConst
    VBoxNsplPL_HashTableRawAdd
    VBoxNsplPL_HashTableRawLookup
    VBoxNsplPL_HashTableRawLookupConst
    VBoxNsplPL_HashTableRawRemove
    VBoxNsplPL_HashTableRemove
    VBoxNsplPL_InitArenaPool
    VBoxNsplPL_InitEvent
    VBoxNsplPL_IsQueueNative
    VBoxNsplPL_IsQueueOnCurrentThread
    VBoxNsplPL_MapEvents
    VBoxNsplPL_NewDHashTable
    VBoxNsplPL_NewHashTable
    VBoxNsplPL_PostEvent
    VBoxNsplPL_PostSynchronousEvent
    VBoxNsplPL_ProcessPendingEvents
    VBoxNsplPL_RevokeEvents
    VBoxNsplPL_WaitForEvent
    VBoxNsplPL_strcasecmp
    VBoxNsplPL_strchr
    VBoxNsplPL_strcmp
    VBoxNsplPL_strcpy
    VBoxNsplPL_strdup
    VBoxNsplPL_strfree
    VBoxNsplPL_strlen
    VBoxNsplPL_strncasecmp
    VBoxNsplPL_strnchr
    VBoxNsplPL_strncmp
    VBoxNsplPL_strncpy
    VBoxNsplPL_strncpyz
    VBoxNsplPL_strndup
    VBoxNsplPL_strnlen
    VBoxNsplPL_strnrchr
    VBoxNsplPL_strnrstr
    VBoxNsplPL_strnstr
    VBoxNsplPL_strrchr
    VBoxNsplPL_strrstr
    VBoxNsplPL_strstr
    VBoxNsprGetExecutionEnvironment
    VBoxNsprPRP_DestroyNakedCondVar
    VBoxNsprPRP_NakedBroadcast
    VBoxNsprPRP_NakedNotify
    VBoxNsprPRP_NakedWait
    VBoxNsprPRP_NewNakedCondVar
    VBoxNsprPRP_TryLock
    VBoxNsprPR_Abort
    VBoxNsprPR_Accept
    VBoxNsprPR_AcceptRead
    VBoxNsprPR_Access
    VBoxNsprPR_AddWaitFileDesc
    VBoxNsprPR_AllocFileDesc
    VBoxNsprPR_Assert
    VBoxNsprPR_AtomicAdd
    VBoxNsprPR_AtomicDecrement
    VBoxNsprPR_AtomicIncrement
    VBoxNsprPR_AtomicSet
    VBoxNsprPR_AttachThread
    VBoxNsprPR_Available
    VBoxNsprPR_Available64
    VBoxNsprPR_Bind
    VBoxNsprPR_BlockClockInterrupts
    VBoxNsprPR_BlockInterrupt
    VBoxNsprPR_CEnterMonitor
    VBoxNsprPR_CExitMonitor
    VBoxNsprPR_CNotify
    VBoxNsprPR_CNotifyAll
    VBoxNsprPR_CSetOnMonitorRecycle
    VBoxNsprPR_CWait
    VBoxNsprPR_CallOnce
    VBoxNsprPR_CallOnceWithArg
    VBoxNsprPR_Calloc
    VBoxNsprPR_CancelWaitFileDesc
    VBoxNsprPR_CancelWaitGroup
    VBoxNsprPR_CeilingLog2
    VBoxNsprPR_ChangeFileDescNativeHandle
    VBoxNsprPR_Cleanup
    VBoxNsprPR_ClearInterrupt
    VBoxNsprPR_ClearThreadGCAble
    VBoxNsprPR_Close
    VBoxNsprPR_CloseDir
    VBoxNsprPR_CloseFileMap
    VBoxNsprPR_CloseSemaphore
    VBoxNsprPR_Connect
    VBoxNsprPR_ConnectContinue
    VBoxNsprPR_ConvertIPv4AddrToIPv6
    VBoxNsprPR_CreateFileMap
    VBoxNsprPR_CreateIOLayer
    VBoxNsprPR_CreateIOLayerStub
    VBoxNsprPR_CreateMWaitEnumerator
    VBoxNsprPR_CreatePipe
    VBoxNsprPR_CreateProcess
    VBoxNsprPR_CreateProcessDetached
    VBoxNsprPR_CreateSocketPollFd
    VBoxNsprPR_CreateStack
    VBoxNsprPR_CreateThread
    VBoxNsprPR_CreateThreadGCAble
    VBoxNsprPR_CreateWaitGroup
    VBoxNsprPR_Delete
    VBoxNsprPR_DeleteSemaphore
    VBoxNsprPR_DestroyCondVar
    VBoxNsprPR_DestroyLock
    VBoxNsprPR_DestroyMWaitEnumerator
    VBoxNsprPR_DestroyMonitor
    VBoxNsprPR_DestroyPollableEvent
    VBoxNsprPR_DestroyProcessAttr
    VBoxNsprPR_DestroyRWLock
    VBoxNsprPR_DestroySem
    VBoxNsprPR_DestroySocketPollFd
    VBoxNsprPR_DestroyStack
    VBoxNsprPR_DestroyWaitGroup
    VBoxNsprPR_DetachProcess
    VBoxNsprPR_DetachThread
    VBoxNsprPR_DisableClockInterrupts
    VBoxNsprPR_EmulateAcceptRead
    VBoxNsprPR_EmulateSendFile
    VBoxNsprPR_EnableClockInterrupts
    VBoxNsprPR_EnterMonitor
    VBoxNsprPR_EnumerateAddrInfo
    VBoxNsprPR_EnumerateHostEnt
    VBoxNsprPR_EnumerateThreads
    VBoxNsprPR_EnumerateWaitGroup
    VBoxNsprPR_ErrorInstallCallback
    VBoxNsprPR_ErrorInstallTable
    VBoxNsprPR_ErrorLanguages
    VBoxNsprPR_ErrorToName
    VBoxNsprPR_ErrorToString
    VBoxNsprPR_ExitMonitor
    VBoxNsprPR_ExplodeTime
    VBoxNsprPR_FD_CLR
    VBoxNsprPR_FD_ISSET
    VBoxNsprPR_FD_NCLR
    VBoxNsprPR_FD_NISSET
    VBoxNsprPR_FD_NSET
    VBoxNsprPR_FD_SET
    VBoxNsprPR_FD_ZERO
    VBoxNsprPR_FPrintZoneStats
    VBoxNsprPR_FileDesc2NativeHandle
    VBoxNsprPR_FindFunctionSymbol
    VBoxNsprPR_FindFunctionSymbolAndLibrary
    VBoxNsprPR_FindLibrary
    VBoxNsprPR_FindSymbol
    VBoxNsprPR_FindSymbolAndLibrary
    VBoxNsprPR_FloorLog2
    VBoxNsprPR_FormatTime
    VBoxNsprPR_FormatTimeUSEnglish
    VBoxNsprPR_Free
    VBoxNsprPR_FreeAddrInfo
    VBoxNsprPR_FreeLibraryName
    VBoxNsprPR_GMTParameters
    VBoxNsprPR_GetAddrInfoByName
    VBoxNsprPR_GetCanonNameFromAddrInfo
    VBoxNsprPR_GetConnectStatus
    VBoxNsprPR_GetCurrentThread
    VBoxNsprPR_GetDefaultIOMethods
    VBoxNsprPR_GetDescType
    VBoxNsprPR_GetEnv
    VBoxNsprPR_GetError
    VBoxNsprPR_GetErrorText
    VBoxNsprPR_GetErrorTextLength
    VBoxNsprPR_GetFileInfo
    VBoxNsprPR_GetFileInfo64
    VBoxNsprPR_GetFileMethods
    VBoxNsprPR_GetHostByAddr
    VBoxNsprPR_GetHostByName
    VBoxNsprPR_GetIPNodeByName
    VBoxNsprPR_GetIdentitiesLayer
    VBoxNsprPR_GetInheritedFD
    VBoxNsprPR_GetLayersIdentity
    VBoxNsprPR_GetLibraryFilePathname
    VBoxNsprPR_GetLibraryName
    VBoxNsprPR_GetLibraryPath
    VBoxNsprPR_GetMemMapAlignment
    VBoxNsprPR_GetMonitorEntryCount
    VBoxNsprPR_GetNameForIdentity
    VBoxNsprPR_GetOSError
    VBoxNsprPR_GetOpenFileInfo
    VBoxNsprPR_GetOpenFileInfo64
    VBoxNsprPR_GetPageShift
    VBoxNsprPR_GetPageSize
    VBoxNsprPR_GetPeerName
    VBoxNsprPR_GetPipeMethods
    VBoxNsprPR_GetProtoByName
    VBoxNsprPR_GetProtoByNumber
    VBoxNsprPR_GetSP
    VBoxNsprPR_GetSockName
    VBoxNsprPR_GetSocketOption
    VBoxNsprPR_GetSpecialFD
    VBoxNsprPR_GetTCPMethods
    VBoxNsprPR_GetThreadAffinityMask
    VBoxNsprPR_GetThreadID
    VBoxNsprPR_GetThreadPriority
    VBoxNsprPR_GetThreadPrivate
    VBoxNsprPR_GetThreadScope
    VBoxNsprPR_GetThreadState
    VBoxNsprPR_GetThreadType
    VBoxNsprPR_GetUDPMethods
    VBoxNsprPR_GetUniqueIdentity
    VBoxNsprPR_ImplodeTime
    VBoxNsprPR_ImportFile
    VBoxNsprPR_ImportPipe
    VBoxNsprPR_ImportTCPSocket
    VBoxNsprPR_ImportUDPSocket
    VBoxNsprPR_Init
    VBoxNsprPR_Initialize
    VBoxNsprPR_InitializeNetAddr
    VBoxNsprPR_Initialized
    VBoxNsprPR_Interrupt
    VBoxNsprPR_IntervalNow
    VBoxNsprPR_IntervalToMicroseconds
    VBoxNsprPR_IntervalToMilliseconds
    VBoxNsprPR_IntervalToSeconds
    VBoxNsprPR_IsNetAddrType
    VBoxNsprPR_JoinThread
    VBoxNsprPR_KillProcess
    VBoxNsprPR_Listen
    VBoxNsprPR_LoadLibrary
    VBoxNsprPR_LoadLibraryWithFlags
    VBoxNsprPR_LoadStaticLibrary
    VBoxNsprPR_LocalTimeParameters
    VBoxNsprPR_Lock
    VBoxNsprPR_LockFile
    VBoxNsprPR_LogFlush
    VBoxNsprPR_LogPrint
    VBoxNsprPR_MakeDir
    VBoxNsprPR_Malloc
    VBoxNsprPR_MemMap
    VBoxNsprPR_MemUnmap
    VBoxNsprPR_MicrosecondsToInterval
    VBoxNsprPR_MillisecondsToInterval
    VBoxNsprPR_MkDir
    VBoxNsprPR_NetAddrToString
    VBoxNsprPR_NewCondVar
    VBoxNsprPR_NewLock
    VBoxNsprPR_NewLogModule
    VBoxNsprPR_NewMonitor
    VBoxNsprPR_NewNamedMonitor
    VBoxNsprPR_NewPollableEvent
    VBoxNsprPR_NewProcessAttr
    VBoxNsprPR_NewRWLock
    VBoxNsprPR_NewSem
    VBoxNsprPR_NewTCPSocket
    VBoxNsprPR_NewTCPSocketPair
    VBoxNsprPR_NewThreadPrivateIndex
    VBoxNsprPR_NewUDPSocket
    VBoxNsprPR_NormalizeTime
    VBoxNsprPR_Notify
    VBoxNsprPR_NotifyAll
    VBoxNsprPR_NotifyAllCondVar
    VBoxNsprPR_NotifyCondVar
    VBoxNsprPR_Now
    VBoxNsprPR_Open
    VBoxNsprPR_OpenDir
    VBoxNsprPR_OpenFile
    VBoxNsprPR_OpenSemaphore
    VBoxNsprPR_OpenTCPSocket
    VBoxNsprPR_OpenUDPSocket
    VBoxNsprPR_ParseTimeString
    VBoxNsprPR_Poll
    VBoxNsprPR_PopIOLayer
    VBoxNsprPR_PostSem
    VBoxNsprPR_PostSemaphore
    VBoxNsprPR_ProcessAttrSetCurrentDirectory
    VBoxNsprPR_ProcessAttrSetInheritableFD
    VBoxNsprPR_ProcessAttrSetStdioRedirect
    VBoxNsprPR_ProcessExit
    VBoxNsprPR_PushIOLayer
    VBoxNsprPR_RWLock_Rlock
    VBoxNsprPR_RWLock_Unlock
    VBoxNsprPR_RWLock_Wlock
    VBoxNsprPR_Read
    VBoxNsprPR_ReadDir
    VBoxNsprPR_Realloc
    VBoxNsprPR_Recv
    VBoxNsprPR_RecvFrom
    VBoxNsprPR_Rename
    VBoxNsprPR_ResetProcessAttr
    VBoxNsprPR_ResumeAll
    VBoxNsprPR_RmDir
    VBoxNsprPR_SecondsToInterval
    VBoxNsprPR_Seek
    VBoxNsprPR_Seek64
    VBoxNsprPR_Select
    VBoxNsprPR_Send
    VBoxNsprPR_SendFile
    VBoxNsprPR_SendTo
    VBoxNsprPR_SetConcurrency
    VBoxNsprPR_SetEnv
    VBoxNsprPR_SetError
    VBoxNsprPR_SetErrorText
    VBoxNsprPR_SetFDCacheSize
    VBoxNsprPR_SetFDInheritable
    VBoxNsprPR_SetLibraryPath
    VBoxNsprPR_SetLogBuffering
    VBoxNsprPR_SetLogFile
    VBoxNsprPR_SetNetAddr
    VBoxNsprPR_SetPollableEvent
    VBoxNsprPR_SetSocketOption
    VBoxNsprPR_SetStdioRedirect
    VBoxNsprPR_SetThreadAffinityMask
    VBoxNsprPR_SetThreadDumpProc
    VBoxNsprPR_SetThreadGCAble
    VBoxNsprPR_SetThreadPriority
    VBoxNsprPR_SetThreadPrivate
    VBoxNsprPR_SetThreadRecycleMode
    VBoxNsprPR_Shutdown
    VBoxNsprPR_Sleep
    VBoxNsprPR_Socket
    VBoxNsprPR_StackPop
    VBoxNsprPR_StackPush
    VBoxNsprPR_Stat
    VBoxNsprPR_StringToNetAddr
    VBoxNsprPR_SuspendAll
    VBoxNsprPR_Sync
    VBoxNsprPR_TLockFile
    VBoxNsprPR_TicksPerSecond
    VBoxNsprPR_TransmitFile
    VBoxNsprPR_USPacificTimeParameters
    VBoxNsprPR_UnblockClockInterrupts
    VBoxNsprPR_UnblockInterrupt
    VBoxNsprPR_UnloadLibrary
    VBoxNsprPR_Unlock
    VBoxNsprPR_UnlockFile
    VBoxNsprPR_VersionCheck
    VBoxNsprPR_Wait
    VBoxNsprPR_WaitCondVar
    VBoxNsprPR_WaitForPollableEvent
    VBoxNsprPR_WaitProcess
    VBoxNsprPR_WaitRecvReady
    VBoxNsprPR_WaitSem
    VBoxNsprPR_WaitSemaphore
    VBoxNsprPR_Write
    VBoxNsprPR_Writev
    VBoxNsprPR_Yield
    VBoxNsprPR_cnvtf
    VBoxNsprPR_dtoa
    VBoxNsprPR_fprintf
    VBoxNsprPR_htonl
    VBoxNsprPR_htonll
    VBoxNsprPR_htons
    VBoxNsprPR_ntohl
    VBoxNsprPR_ntohll
    VBoxNsprPR_ntohs
    VBoxNsprPR_smprintf
    VBoxNsprPR_smprintf_free
    VBoxNsprPR_snprintf
    VBoxNsprPR_sprintf_append
    VBoxNsprPR_sscanf
    VBoxNsprPR_strtod
    VBoxNsprPR_sxprintf
    VBoxNsprPR_vfprintf
    VBoxNsprPR_vsmprintf
    VBoxNsprPR_vsnprintf
    VBoxNsprPR_vsprintf_append
    VBoxNsprPR_vsxprintf
    VBoxNsprPT_FPrintStats
    VBoxNsprSetExecutionEnvironment
    VBoxNsxpNS_CStringCloneData
    VBoxNsxpNS_CStringContainerFinish
    VBoxNsxpNS_CStringContainerInit
    VBoxNsxpNS_CStringCopy
    VBoxNsxpNS_CStringGetData
    VBoxNsxpNS_CStringSetData
    VBoxNsxpNS_CStringSetDataRange
    VBoxNsxpNS_CStringToUTF16
    VBoxNsxpNS_GetComponentManager
    VBoxNsxpNS_GetComponentRegistrar
    VBoxNsxpNS_GetDebug
    VBoxNsxpNS_GetFrozenFunctions
    VBoxNsxpNS_GetMemoryManager
    VBoxNsxpNS_GetServiceManager
    VBoxNsxpNS_GetTraceRefcnt
    VBoxNsxpNS_InitXPCOM2
    VBoxNsxpNS_MeanAndStdDev
    VBoxNsxpNS_NewByteInputStream
    VBoxNsxpNS_NewCStringInputStream
    VBoxNsxpNS_NewCharInputStream
    VBoxNsxpNS_NewEmptyEnumerator
    VBoxNsxpNS_NewLocalFile
    VBoxNsxpNS_NewNativeLocalFile
    VBoxNsxpNS_NewSingletonEnumerator
    VBoxNsxpNS_NewStringInputStream
    VBoxNsxpNS_NewUnionEnumerator
    VBoxNsxpNS_QuickSort
    VBoxNsxpNS_RegisterXPCOMExitRoutine
    VBoxNsxpNS_ShutdownXPCOM
    VBoxNsxpNS_StringCloneData
    VBoxNsxpNS_StringContainerFinish
    VBoxNsxpNS_StringContainerInit
    VBoxNsxpNS_StringCopy
    VBoxNsxpNS_StringGetData
    VBoxNsxpNS_StringSetData
    VBoxNsxpNS_StringSetDataRange
    VBoxNsxpNS_UTF16ToCString
    VBoxNsxpNS_UnregisterXPCOMExitRoutine
    VBoxNsxpXPTC_InvokeByIndex
    VBoxNsxpXPTI_FreeInterfaceInfoManager
    VBoxNsxpXPTI_GetInterfaceInfoManager
    VBoxNsxpXPT_ArenaFree
    VBoxNsxpXPT_ArenaMalloc
    VBoxNsxpXPT_ArenaStrDup
    VBoxNsxpXPT_AssertFailed
    VBoxNsxpXPT_DataOffset
    VBoxNsxpXPT_DestroyArena
    VBoxNsxpXPT_DestroyInterfaceDirectoryEntry
    VBoxNsxpXPT_DestroyXDRState
    VBoxNsxpXPT_Do16
    VBoxNsxpXPT_Do32
    VBoxNsxpXPT_Do64
    VBoxNsxpXPT_Do8
    VBoxNsxpXPT_DoCString
    VBoxNsxpXPT_DoHeader
    VBoxNsxpXPT_DoHeaderPrologue
    VBoxNsxpXPT_DoIID
    VBoxNsxpXPT_DoString
    VBoxNsxpXPT_DoStringInline
    VBoxNsxpXPT_DumpStats
    VBoxNsxpXPT_FillInterfaceDirectoryEntry
    VBoxNsxpXPT_FillMethodDescriptor
    VBoxNsxpXPT_FillParamDescriptor
    VBoxNsxpXPT_FreeHeader
    VBoxNsxpXPT_FreeInterfaceDescriptor
    VBoxNsxpXPT_GetAddrForOffset
    VBoxNsxpXPT_GetInterfaceIndexByName
    VBoxNsxpXPT_GetOffsetForAddr
    VBoxNsxpXPT_GetXDRData
    VBoxNsxpXPT_GetXDRDataLength
    VBoxNsxpXPT_InterfaceDescriptorAddConsts
    VBoxNsxpXPT_InterfaceDescriptorAddMethods
    VBoxNsxpXPT_InterfaceDescriptorAddTypes
    VBoxNsxpXPT_MakeCursor
    VBoxNsxpXPT_NewAnnotation
    VBoxNsxpXPT_NewArena
    VBoxNsxpXPT_NewHeader
    VBoxNsxpXPT_NewInterfaceDescriptor
    VBoxNsxpXPT_NewString
    VBoxNsxpXPT_NewStringZ
    VBoxNsxpXPT_NewXDRState
    VBoxNsxpXPT_NotifyDoneLoading
    VBoxNsxpXPT_ParseVersionString
    VBoxNsxpXPT_SeekTo
    VBoxNsxpXPT_SetAddrForOffset
    VBoxNsxpXPT_SetDataOffset
    VBoxNsxpXPT_SetOffsetForAddr
    VBoxNsxpXPT_SizeOfHeader
    VBoxNsxpXPT_SizeOfHeaderBlock
    _MD_LockFile
    _MD_TLockFile
    _MD_UnlockFile
    _MD_gethostname
    _MD_getsysinfo
    _MD_unix_map_accept_error
    _MD_unix_map_access_error
    _MD_unix_map_bind_error
    _MD_unix_map_close_error
    _MD_unix_map_closedir_error
    _MD_unix_map_connect_error
    _MD_unix_map_default_error
    _MD_unix_map_flock_error
    _MD_unix_map_fstat_error
    _MD_unix_map_fsync_error
    _MD_unix_map_gethostname_error
    _MD_unix_map_getpeername_error
    _MD_unix_map_getsockname_error
    _MD_unix_map_getsockopt_error
    _MD_unix_map_listen_error
    _MD_unix_map_lockf_error
    _MD_unix_map_lseek_error
    _MD_unix_map_mkdir_error
    _MD_unix_map_mmap_error
    _MD_unix_map_open_error
    _MD_unix_map_opendir_error
    _MD_unix_map_poll_error
    _MD_unix_map_poll_revents_error
    _MD_unix_map_read_error
    _MD_unix_map_recv_error
    _MD_unix_map_recvfrom_error
    _MD_unix_map_rename_error
    _MD_unix_map_rmdir_error
    _MD_unix_map_select_error
    _MD_unix_map_send_error
    _MD_unix_map_sendto_error
    _MD_unix_map_setsockopt_error
    _MD_unix_map_shutdown_error
    _MD_unix_map_socket_error
    _MD_unix_map_socketavailable_error
    _MD_unix_map_socketpair_error
    _MD_unix_map_stat_error
    _MD_unix_map_unlink_error
    _MD_unix_map_write_error
    _MD_unix_map_writev_error
    _MD_unix_readdir_error
    _Z10HashStringRK10nsACString
    _Z10HashStringRK9nsAString
    _Z10NS_NewAtomPKc
    _Z10NS_NewAtomPKt
    _Z10NS_NewAtomRK10nsACString
    _Z10NS_NewAtomRK9nsAString
    _Z11EmptyStringv
    _Z11NS_NewArrayPP15nsIMutableArray
    _Z11NS_NewArrayPP15nsIMutableArrayRK15nsCOMArray_base
    _Z11NS_NewPipe2PP19nsIAsyncInputStreamPP20nsIAsyncOutputStreamiijjP9nsIMemory
    _Z11ToLowerCaseR10nsACString
    _Z11ToLowerCaseR12nsCSubstring
    _Z11ToLowerCaseRK10nsACStringRS_
    _Z11ToUpperCaseR10nsACString
    _Z11ToUpperCaseR12nsCSubstring
    _Z11ToUpperCaseRK10nsACStringRS_
    _Z12EmptyCStringv
    _Z12NS_AsyncCopyP14nsIInputStreamP15nsIOutputStreamP14nsIEventTarget15nsAsyncCopyModejPFvPvjES6_
    _Z12NS_InitXPCOMPP17nsIServiceManagerP7nsIFile
    _Z12NS_NewThreadPP9nsIThreadP11nsIRunnablej13PRThreadState16PRThreadPriority13PRThreadScope
    _Z12NS_NewThreadPP9nsIThreadj13PRThreadState16PRThreadPriority13PRThreadScope
    _Z12ToNewCStringRK10nsACString
    _Z12ToNewCStringRK9nsAString
    _Z12ToNewUnicodeRK10nsACString
    _Z12ToNewUnicodeRK9nsAString
    _Z13CopyUnicodeToRK17nsReadingIteratorItES2_R9nsAString
    _Z13CopyUnicodeToRK9nsAStringjPtj
    _Z14FindInReadableRK10nsACStringR17nsReadingIteratorIcES4_RK19nsCStringComparator
    _Z14FindInReadableRK9nsAStringR17nsReadingIteratorItES4_RK18nsStringComparator
    _Z14StringEndsWithRK10nsACStringS1_RK19nsCStringComparator
    _Z14StringEndsWithRK9nsAStringS1_RK18nsStringComparator
    _Z15AppendUnicodeToRK17nsReadingIteratorItES2_R9nsAString
    _Z15CopyUTF16toUTF8PKtR10nsACString
    _Z15CopyUTF16toUTF8RK9nsAStringR10nsACString
    _Z15CopyUTF8toUTF16PKcR9nsAString
    _Z15CopyUTF8toUTF16RK10nsACStringR9nsAString
    _Z15NS_ProxyReleaseP14nsIEventTargetP11nsISupportsi
    _Z15RFindInReadableRK10nsACStringR17nsReadingIteratorIcES4_RK19nsCStringComparator
    _Z15RFindInReadableRK9nsAStringR17nsReadingIteratorItES4_RK18nsStringComparator
    _Z15ToNewUTF8StringRK9nsAStringPj
    _Z16CopyASCIItoUTF16PKcR9nsAString
    _Z16CopyASCIItoUTF16RK10nsACStringR9nsAString
    _Z16NS_NewByteBufferPP13nsIByteBufferP11nsISupportsj
    _Z16StringBeginsWithRK10nsACStringS1_RK19nsCStringComparator
    _Z16StringBeginsWithRK9nsAStringS1_RK18nsStringComparator
    _Z16UTF8ToNewUnicodeRK10nsACStringPj
    _Z17AppendUTF16toUTF8PKtR10nsACString
    _Z17AppendUTF16toUTF8RK9nsAStringR10nsACString
    _Z17AppendUTF8toUTF16PKcR9nsAString
    _Z17AppendUTF8toUTF16RK10nsACStringR9nsAString
    _Z18AppendASCIItoUTF16PKcR9nsAString
    _Z18AppendASCIItoUTF16RK10nsACStringR9nsAString
    _Z18FindCharInReadablecR17nsReadingIteratorIcERKS0_
    _Z18FindCharInReadabletR17nsReadingIteratorItERKS0_
    _Z19CountCharInReadableRK10nsACStringc
    _Z19CountCharInReadableRK9nsAStringt
    _Z19NS_GetNumberOfAtomsv
    _Z19NS_GetWeakReferenceP11nsISupportsPj
    _Z19NS_NewGenericModulePKcjP21nsModuleComponentInfoPFvP9nsIModuleEPS4_
    _Z19NS_NewPermanentAtomPKc
    _Z19NS_NewPermanentAtomPKt
    _Z19NS_NewPermanentAtomRK10nsACString
    _Z19NS_NewPermanentAtomRK9nsAString
    _Z19NS_NewStorageStreamjjPP16nsIStorageStream
    _Z19NS_NewUnicharBufferPP16nsIUnicharBufferP11nsISupportsj
    _Z19TestSegmentedBufferv
    _Z20NS_GetProxyForObjectP13nsIEventQueueRK4nsIDP11nsISupportsiPPv
    _Z20NS_NewGenericFactoryPP17nsIGenericFactoryPK21nsModuleComponentInfo
    _Z20NS_NewGenericModule2P12nsModuleInfoPP9nsIModule
    _Z20NS_NewISupportsArrayPP16nsISupportsArray
    _Z21LossyCopyUTF16toASCIIPKtR10nsACString
    _Z21LossyCopyUTF16toASCIIRK9nsAStringR10nsACString
    _Z21NS_NewArrayEnumeratorPP19nsISimpleEnumeratorP16nsISupportsArray
    _Z21NS_NewArrayEnumeratorPP19nsISimpleEnumeratorP8nsIArray
    _Z21NS_NewArrayEnumeratorPP19nsISimpleEnumeratorRK15nsCOMArray_base
    _Z22NS_CopyNativeToUnicodeRK10nsACStringR9nsAString
    _Z22NS_CopyUnicodeToNativeRK9nsAStringR10nsACString
    _Z22NS_RegisterStaticAtomsPK12nsStaticAtomj
    _Z22PL_DHashStubEnumRemoveP12PLDHashTableP15PLDHashEntryHdrjPv
    _Z23LossyAppendUTF16toASCIIPKtR10nsACString
    _Z23LossyAppendUTF16toASCIIRK9nsAStringR10nsACString
    _Z23NS_AddFastLoadChecksumsjjj
    _Z23NS_ErrorAccordingToNSPRv
    _Z24NS_NewFastLoadFileReaderPP20nsIObjectInputStreamP14nsIInputStream
    _Z24NS_NewFastLoadFileWriterPP21nsIObjectOutputStreamP15nsIOutputStreamP17nsIFastLoadFileIO
    _Z25NS_NewFastLoadFileUpdaterPP21nsIObjectOutputStreamP15nsIOutputStreamP20nsIObjectInputStream
    _Z25NS_NewUTF8ConverterStreamPP21nsIUnicharInputStreamP14nsIInputStreami
    _Z27NS_NewInputStreamReadyEventPP22nsIInputStreamCallbackS0_P14nsIEventTarget
    _Z28NS_GetGlobalComponentManagerPP19nsIComponentManager
    _Z28NS_NewOutputStreamReadyEventPP23nsIOutputStreamCallbackS0_P14nsIEventTarget
    _Z29CaseInsensitiveFindInReadableRK10nsACStringR17nsReadingIteratorIcES4_
    _Z29NS_AccumulateFastLoadChecksumPjPKhji
    _Z29NS_CreateServicesFromCategoryPKcP11nsISupportsS0_
    _Z29StartupSpecialSystemDirectoryv
    _Z30NS_NewISupportsArrayEnumeratorP16nsISupportsArrayPP26nsIBidirectionalEnumerator
    _Z30NS_NewStringUnicharInputStreamPP21nsIUnicharInputStreamP8nsString
    _Z30ShutdownSpecialSystemDirectoryv
    _Z6IsUTF8RK10nsACString
    _Z7CompareRK10nsACStringS1_RK19nsCStringComparator
    _Z7CompareRK9nsAStringS1_RK18nsStringComparator
    _Z7IsASCIIRK10nsACString
    _Z7IsASCIIRK9nsAString
    _ZN10nsACString11AppendASCIIEPKc
    _ZN10nsACString11AppendASCIIEPKcj
    _ZN10nsACString11AssignASCIIEPKc
    _ZN10nsACString11AssignASCIIEPKcj
    _ZN10nsACString11SetCapacityEj
    _ZN10nsACString17GetWritableBufferEPPc
    _ZN10nsACString3CutEjj
    _ZN10nsACString6AppendEPKc
    _ZN10nsACString6AppendEPKcj
    _ZN10nsACString6AppendERK17nsCSubstringTuple
    _ZN10nsACString6AppendERKS_
    _ZN10nsACString6AppendEc
    _ZN10nsACString6AssignEPKc
    _ZN10nsACString6AssignEPKcj
    _ZN10nsACString6AssignERK17nsCSubstringTuple
    _ZN10nsACString6AssignERKS_
    _ZN10nsACString6AssignEc
    _ZN10nsACString6InsertEPKcj
    _ZN10nsACString6InsertEPKcjj
    _ZN10nsACString6InsertERK17nsCSubstringTuplej
    _ZN10nsACString6InsertERKS_j
    _ZN10nsACString6InsertEcj
    _ZN10nsACString7ReplaceEjjRK17nsCSubstringTuple
    _ZN10nsACString7ReplaceEjjRKS_
    _ZN10nsACString9SetIsVoidEi
    _ZN10nsACString9SetLengthEj
    _ZN10nsACStringD1Ev
    _ZN10nsACStringD2Ev
    _ZN11nsHashtable3GetEP9nsHashKey
    _ZN11nsHashtable3PutEP9nsHashKeyPv
    _ZN11nsHashtable5CloneEv
    _ZN11nsHashtable5ResetEPFiP9nsHashKeyPvS2_ES2_
    _ZN11nsHashtable5ResetEv
    _ZN11nsHashtable6ExistsEP9nsHashKey
    _ZN11nsHashtable6RemoveEP9nsHashKey
    _ZN11nsHashtable9EnumerateEPFiP9nsHashKeyPvS2_ES2_
    _ZN11nsHashtableC1EP20nsIObjectInputStreamPFjS1_PP9nsHashKeyPPvEPFvS1_S3_S5_EPj
    _ZN11nsHashtableC1Eji
    _ZN11nsHashtableC2EP20nsIObjectInputStreamPFjS1_PP9nsHashKeyPPvEPFvS1_S3_S5_EPj
    _ZN11nsHashtableC2Eji
    _ZN11nsHashtableD0Ev
    _ZN11nsHashtableD1Ev
    _ZN11nsHashtableD2Ev
    _ZN11nsIDHashKey7HashKeyEPK4nsID
    _ZN11nsLocalFile10GlobalInitEv
    _ZN11nsLocalFile13FillStatCacheEv
    _ZN11nsLocalFile14GlobalShutdownEv
    _ZN11nsLocalFile15CopyDirectoryToEP7nsIFile
    _ZN11nsLocalFile17CreateAndKeepOpenEjijPP10PRFileDesc
    _ZN11nsLocalFile18CreateAllAncestorsEj
    _ZN11nsLocalFile20LocateNativeLeafNameER17nsReadingIteratorIcES2_
    _ZN11nsLocalFile22nsLocalFileConstructorEP11nsISupportsRK4nsIDPPv
    _ZN11nsLocalFile23GetNativeTargetPathNameEP7nsIFileRK10nsACStringRS2_
    _ZN11nsLocalFileC1ERKS_
    _ZN11nsLocalFileC1Ev
    _ZN11nsLocalFileC2ERKS_
    _ZN11nsLocalFileC2Ev
    _ZN11nsStringKeyC1EP20nsIObjectInputStreamPj
    _ZN11nsStringKeyC1EPKtiNS_9OwnershipE
    _ZN11nsStringKeyC1ERK8nsString
    _ZN11nsStringKeyC1ERK9nsAString
    _ZN11nsStringKeyC1ERKS_
    _ZN11nsStringKeyC2EP20nsIObjectInputStreamPj
    _ZN11nsStringKeyC2EPKtiNS_9OwnershipE
    _ZN11nsStringKeyC2ERK8nsString
    _ZN11nsStringKeyC2ERK9nsAString
    _ZN11nsStringKeyC2ERKS_
    _ZN11nsStringKeyD0Ev
    _ZN11nsStringKeyD1Ev
    _ZN11nsStringKeyD2Ev
    _ZN11nsSubstring11AssignASCIIEPKc
    _ZN11nsSubstring11AssignASCIIEPKcj
    _ZN11nsSubstring11SetCapacityEj
    _ZN11nsSubstring12ReplaceASCIIEjjPKcj
    _ZN11nsSubstring13EnsureMutableEv
    _ZN11nsSubstring5AdoptEPtj
    _ZN11nsSubstring6AssignEPKtj
    _ZN11nsSubstring6AssignERK16nsSubstringTuple
    _ZN11nsSubstring6AssignERK9nsAString
    _ZN11nsSubstring6AssignERKS_
    _ZN11nsSubstring7ReplaceEjjPKtj
    _ZN11nsSubstring7ReplaceEjjRK16nsSubstringTuple
    _ZN11nsSubstring7ReplaceEjjRK9nsAString
    _ZN11nsSubstring9SetIsVoidEi
    _ZN11nsSubstring9SetLengthEj
    _ZN11nsVoidArray11GrowArrayByEi
    _ZN11nsVoidArray11MoveElementEii
    _ZN11nsVoidArray13RemoveElementEPv
    _ZN11nsVoidArray15InsertElementAtEPvi
    _ZN11nsVoidArray16InsertElementsAtERKS_i
    _ZN11nsVoidArray16RemoveElementsAtEii
    _ZN11nsVoidArray16ReplaceElementAtEPvi
    _ZN11nsVoidArray17EnumerateForwardsEPFiPvS0_ES0_
    _ZN11nsVoidArray18EnumerateBackwardsEPFiPvS0_ES0_
    _ZN11nsVoidArray4SortEPFiPKvS1_PvES2_
    _ZN11nsVoidArray5ClearEv
    _ZN11nsVoidArray6SizeToEi
    _ZN11nsVoidArray7CompactEv
    _ZN11nsVoidArrayC1Ei
    _ZN11nsVoidArrayC1Ev
    _ZN11nsVoidArrayC2Ei
    _ZN11nsVoidArrayC2Ev
    _ZN11nsVoidArrayD0Ev
    _ZN11nsVoidArrayD1Ev
    _ZN11nsVoidArrayD2Ev
    _ZN11nsVoidArrayaSERKS_
    _ZN12nsCStringKeyC1EP20nsIObjectInputStreamPj
    _ZN12nsCStringKeyC1EPKciNS_9OwnershipE
    _ZN12nsCStringKeyC1ERK10nsACString
    _ZN12nsCStringKeyC1ERK9nsCString
    _ZN12nsCStringKeyC1ERKS_
    _ZN12nsCStringKeyC2EP20nsIObjectInputStreamPj
    _ZN12nsCStringKeyC2EPKciNS_9OwnershipE
    _ZN12nsCStringKeyC2ERK10nsACString
    _ZN12nsCStringKeyC2ERK9nsCString
    _ZN12nsCStringKeyC2ERKS_
    _ZN12nsCStringKeyD0Ev
    _ZN12nsCStringKeyD1Ev
    _ZN12nsCStringKeyD2Ev
    _ZN12nsCSubstring11AssignASCIIEPKc
    _ZN12nsCSubstring11AssignASCIIEPKcj
    _ZN12nsCSubstring11SetCapacityEj
    _ZN12nsCSubstring12ReplaceASCIIEjjPKcj
    _ZN12nsCSubstring13EnsureMutableEv
    _ZN12nsCSubstring5AdoptEPcj
    _ZN12nsCSubstring6AssignEPKcj
    _ZN12nsCSubstring6AssignERK10nsACString
    _ZN12nsCSubstring6AssignERK17nsCSubstringTuple
    _ZN12nsCSubstring6AssignERKS_
    _ZN12nsCSubstring7ReplaceEjjPKcj
    _ZN12nsCSubstring7ReplaceEjjRK10nsACString
    _ZN12nsCSubstring7ReplaceEjjRK17nsCSubstringTuple
    _ZN12nsCSubstring9SetIsVoidEi
    _ZN12nsCSubstring9SetLengthEj
    _ZN13nsAutoMonitor10NewMonitorEPKc
    _ZN13nsAutoMonitor14DestroyMonitorEP9PRMonitor
    _ZN13nsAutoMonitor4ExitEv
    _ZN13nsAutoMonitor5EnterEv
    _ZN13nsCOMPtr_base14assign_from_qiE16nsQueryInterfaceRK4nsID
    _ZN13nsCOMPtr_base16begin_assignmentEv
    _ZN13nsCOMPtr_base18assign_from_helperERK15nsCOMPtr_helperRK4nsID
    _ZN13nsCOMPtr_base18assign_with_AddRefEP11nsISupports
    _ZN13nsCOMPtr_base25assign_from_qi_with_errorERK25nsQueryInterfaceWithErrorRK4nsID
    _ZN13nsCOMPtr_baseD1Ev
    _ZN13nsCOMPtr_baseD2Ev
    _ZN13nsStringArray12RemoveStringERK9nsAString
    _ZN13nsStringArray14InsertStringAtERK9nsAStringi
    _ZN13nsStringArray14RemoveStringAtEi
    _ZN13nsStringArray15ReplaceStringAtERK9nsAStringi
    _ZN13nsStringArray17EnumerateForwardsEPFiR8nsStringPvES2_
    _ZN13nsStringArray18EnumerateBackwardsEPFiR8nsStringPvES2_
    _ZN13nsStringArray4SortEPFiPK8nsStringS2_PvES3_
    _ZN13nsStringArray4SortEv
    _ZN13nsStringArray5ClearEv
    _ZN13nsStringArrayC1Ei
    _ZN13nsStringArrayC1Ev
    _ZN13nsStringArrayC2Ei
    _ZN13nsStringArrayC2Ev
    _ZN13nsStringArrayD0Ev
    _ZN13nsStringArrayD1Ev
    _ZN13nsStringArrayD2Ev
    _ZN13nsStringArrayaSERKS_
    _ZN13nsTraceRefcnt10LogReleaseEPvjPKc
    _ZN13nsTraceRefcnt12LogAddCOMPtrEPvP11nsISupports
    _ZN13nsTraceRefcnt16LogReleaseCOMPtrEPvP11nsISupports
    _ZN13nsTraceRefcnt7LogCtorEPvPKcj
    _ZN13nsTraceRefcnt7LogDtorEPvPKcj
    _ZN13nsTraceRefcnt9LogAddRefEPvjPKcj
    _ZN14nsAutoCMonitor4ExitEv
    _ZN14nsAutoCMonitor5EnterEv
    _ZN14nsAutoLockBase4HideEv
    _ZN14nsAutoLockBase4ShowEv
    _ZN14nsAutoLockBaseC1EPvNS_14nsAutoLockTypeE
    _ZN14nsAutoLockBaseC2EPvNS_14nsAutoLockTypeE
    _ZN14nsAutoLockBaseD1Ev
    _ZN14nsAutoLockBaseD2Ev
    _ZN14nsCStringArray11ParseStringEPKcS1_
    _ZN14nsCStringArray13RemoveCStringERK10nsACString
    _ZN14nsCStringArray14SortIgnoreCaseEv
    _ZN14nsCStringArray15InsertCStringAtERK10nsACStringi
    _ZN14nsCStringArray15RemoveCStringAtEi
    _ZN14nsCStringArray16ReplaceCStringAtERK10nsACStringi
    _ZN14nsCStringArray17EnumerateForwardsEPFiR9nsCStringPvES2_
    _ZN14nsCStringArray18EnumerateBackwardsEPFiR9nsCStringPvES2_
    _ZN14nsCStringArray23RemoveCStringIgnoreCaseERK10nsACString
    _ZN14nsCStringArray4SortEPFiPK9nsCStringS2_PvES3_
    _ZN14nsCStringArray4SortEv
    _ZN14nsCStringArray5ClearEv
    _ZN14nsCStringArrayC1Ei
    _ZN14nsCStringArrayC1Ev
    _ZN14nsCStringArrayC2Ei
    _ZN14nsCStringArrayC2Ev
    _ZN14nsCStringArrayD0Ev
    _ZN14nsCStringArrayD1Ev
    _ZN14nsCStringArrayD2Ev
    _ZN14nsCStringArrayaSERKS_
    _ZN14nsISupportsKeyC1EP20nsIObjectInputStreamPj
    _ZN14nsISupportsKeyC2EP20nsIObjectInputStreamPj
    _ZN14nsXPTCStubBase14QueryInterfaceERK4nsIDPPv
    _ZN14nsXPTCStubBase5Stub3Ev
    _ZN14nsXPTCStubBase5Stub4Ev
    _ZN14nsXPTCStubBase5Stub5Ev
    _ZN14nsXPTCStubBase5Stub6Ev
    _ZN14nsXPTCStubBase5Stub7Ev
    _ZN14nsXPTCStubBase5Stub8Ev
    _ZN14nsXPTCStubBase5Stub9Ev
    _ZN14nsXPTCStubBase6Stub10Ev
    _ZN14nsXPTCStubBase6Stub11Ev
    _ZN14nsXPTCStubBase6Stub12Ev
    _ZN14nsXPTCStubBase6Stub13Ev
    _ZN14nsXPTCStubBase6Stub14Ev
    _ZN14nsXPTCStubBase6Stub15Ev
    _ZN14nsXPTCStubBase6Stub16Ev
    _ZN14nsXPTCStubBase6Stub17Ev
    _ZN14nsXPTCStubBase6Stub18Ev
    _ZN14nsXPTCStubBase6Stub19Ev
    _ZN14nsXPTCStubBase6Stub20Ev
    _ZN14nsXPTCStubBase6Stub21Ev
    _ZN14nsXPTCStubBase6Stub22Ev
    _ZN14nsXPTCStubBase6Stub23Ev
    _ZN14nsXPTCStubBase6Stub24Ev
    _ZN14nsXPTCStubBase6Stub25Ev
    _ZN14nsXPTCStubBase6Stub26Ev
    _ZN14nsXPTCStubBase6Stub27Ev
    _ZN14nsXPTCStubBase6Stub28Ev
    _ZN14nsXPTCStubBase6Stub29Ev
    _ZN14nsXPTCStubBase6Stub30Ev
    _ZN14nsXPTCStubBase6Stub31Ev
    _ZN14nsXPTCStubBase6Stub32Ev
    _ZN14nsXPTCStubBase6Stub33Ev
    _ZN14nsXPTCStubBase6Stub34Ev
    _ZN14nsXPTCStubBase6Stub35Ev
    _ZN14nsXPTCStubBase6Stub36Ev
    _ZN14nsXPTCStubBase6Stub37Ev
    _ZN14nsXPTCStubBase6Stub38Ev
    _ZN14nsXPTCStubBase6Stub39Ev
    _ZN14nsXPTCStubBase6Stub40Ev
    _ZN14nsXPTCStubBase6Stub41Ev
    _ZN14nsXPTCStubBase6Stub42Ev
    _ZN14nsXPTCStubBase6Stub43Ev
    _ZN14nsXPTCStubBase6Stub44Ev
    _ZN14nsXPTCStubBase6Stub45Ev
    _ZN14nsXPTCStubBase6Stub46Ev
    _ZN14nsXPTCStubBase6Stub47Ev
    _ZN14nsXPTCStubBase6Stub48Ev
    _ZN14nsXPTCStubBase6Stub49Ev
    _ZN14nsXPTCStubBase6Stub50Ev
    _ZN14nsXPTCStubBase6Stub51Ev
    _ZN14nsXPTCStubBase6Stub52Ev
    _ZN14nsXPTCStubBase6Stub53Ev
    _ZN14nsXPTCStubBase6Stub54Ev
    _ZN14nsXPTCStubBase6Stub55Ev
    _ZN14nsXPTCStubBase6Stub56Ev
    _ZN14nsXPTCStubBase6Stub57Ev
    _ZN14nsXPTCStubBase6Stub58Ev
    _ZN14nsXPTCStubBase6Stub59Ev
    _ZN14nsXPTCStubBase6Stub60Ev
    _ZN14nsXPTCStubBase6Stub61Ev
    _ZN14nsXPTCStubBase6Stub62Ev
    _ZN14nsXPTCStubBase6Stub63Ev
    _ZN14nsXPTCStubBase6Stub64Ev
    _ZN14nsXPTCStubBase6Stub65Ev
    _ZN14nsXPTCStubBase6Stub66Ev
    _ZN14nsXPTCStubBase6Stub67Ev
    _ZN14nsXPTCStubBase6Stub68Ev
    _ZN14nsXPTCStubBase6Stub69Ev
    _ZN14nsXPTCStubBase6Stub70Ev
    _ZN14nsXPTCStubBase6Stub71Ev
    _ZN14nsXPTCStubBase6Stub72Ev
    _ZN14nsXPTCStubBase6Stub73Ev
    _ZN14nsXPTCStubBase6Stub74Ev
    _ZN14nsXPTCStubBase6Stub75Ev
    _ZN14nsXPTCStubBase6Stub76Ev
    _ZN14nsXPTCStubBase6Stub77Ev
    _ZN14nsXPTCStubBase6Stub78Ev
    _ZN14nsXPTCStubBase6Stub79Ev
    _ZN14nsXPTCStubBase6Stub80Ev
    _ZN14nsXPTCStubBase6Stub81Ev
    _ZN14nsXPTCStubBase6Stub82Ev
    _ZN14nsXPTCStubBase6Stub83Ev
    _ZN14nsXPTCStubBase6Stub84Ev
    _ZN14nsXPTCStubBase6Stub85Ev
    _ZN14nsXPTCStubBase6Stub86Ev
    _ZN14nsXPTCStubBase6Stub87Ev
    _ZN14nsXPTCStubBase6Stub88Ev
    _ZN14nsXPTCStubBase6Stub89Ev
    _ZN14nsXPTCStubBase6Stub90Ev
    _ZN14nsXPTCStubBase6Stub91Ev
    _ZN14nsXPTCStubBase6Stub92Ev
    _ZN14nsXPTCStubBase6Stub93Ev
    _ZN14nsXPTCStubBase6Stub94Ev
    _ZN14nsXPTCStubBase6Stub95Ev
    _ZN14nsXPTCStubBase6Stub96Ev
    _ZN14nsXPTCStubBase6Stub97Ev
    _ZN14nsXPTCStubBase6Stub98Ev
    _ZN14nsXPTCStubBase6Stub99Ev
    _ZN14nsXPTCStubBase7Stub100Ev
    _ZN14nsXPTCStubBase7Stub101Ev
    _ZN14nsXPTCStubBase7Stub102Ev
    _ZN14nsXPTCStubBase7Stub103Ev
    _ZN14nsXPTCStubBase7Stub104Ev
    _ZN14nsXPTCStubBase7Stub105Ev
    _ZN14nsXPTCStubBase7Stub106Ev
    _ZN14nsXPTCStubBase7Stub107Ev
    _ZN14nsXPTCStubBase7Stub108Ev
    _ZN14nsXPTCStubBase7Stub109Ev
    _ZN14nsXPTCStubBase7Stub110Ev
    _ZN14nsXPTCStubBase7Stub111Ev
    _ZN14nsXPTCStubBase7Stub112Ev
    _ZN14nsXPTCStubBase7Stub113Ev
    _ZN14nsXPTCStubBase7Stub114Ev
    _ZN14nsXPTCStubBase7Stub115Ev
    _ZN14nsXPTCStubBase7Stub116Ev
    _ZN14nsXPTCStubBase7Stub117Ev
    _ZN14nsXPTCStubBase7Stub118Ev
    _ZN14nsXPTCStubBase7Stub119Ev
    _ZN14nsXPTCStubBase7Stub120Ev
    _ZN14nsXPTCStubBase7Stub121Ev
    _ZN14nsXPTCStubBase7Stub122Ev
    _ZN14nsXPTCStubBase7Stub123Ev
    _ZN14nsXPTCStubBase7Stub124Ev
    _ZN14nsXPTCStubBase7Stub125Ev
    _ZN14nsXPTCStubBase7Stub126Ev
    _ZN14nsXPTCStubBase7Stub127Ev
    _ZN14nsXPTCStubBase7Stub128Ev
    _ZN14nsXPTCStubBase7Stub129Ev
    _ZN14nsXPTCStubBase7Stub130Ev
    _ZN14nsXPTCStubBase7Stub131Ev
    _ZN14nsXPTCStubBase7Stub132Ev
    _ZN14nsXPTCStubBase7Stub133Ev
    _ZN14nsXPTCStubBase7Stub134Ev
    _ZN14nsXPTCStubBase7Stub135Ev
    _ZN14nsXPTCStubBase7Stub136Ev
    _ZN14nsXPTCStubBase7Stub137Ev
    _ZN14nsXPTCStubBase7Stub138Ev
    _ZN14nsXPTCStubBase7Stub139Ev
    _ZN14nsXPTCStubBase7Stub140Ev
    _ZN14nsXPTCStubBase7Stub141Ev
    _ZN14nsXPTCStubBase7Stub142Ev
    _ZN14nsXPTCStubBase7Stub143Ev
    _ZN14nsXPTCStubBase7Stub144Ev
    _ZN14nsXPTCStubBase7Stub145Ev
    _ZN14nsXPTCStubBase7Stub146Ev
    _ZN14nsXPTCStubBase7Stub147Ev
    _ZN14nsXPTCStubBase7Stub148Ev
    _ZN14nsXPTCStubBase7Stub149Ev
    _ZN14nsXPTCStubBase7Stub150Ev
    _ZN14nsXPTCStubBase7Stub151Ev
    _ZN14nsXPTCStubBase7Stub152Ev
    _ZN14nsXPTCStubBase7Stub153Ev
    _ZN14nsXPTCStubBase7Stub154Ev
    _ZN14nsXPTCStubBase7Stub155Ev
    _ZN14nsXPTCStubBase7Stub156Ev
    _ZN14nsXPTCStubBase7Stub157Ev
    _ZN14nsXPTCStubBase7Stub158Ev
    _ZN14nsXPTCStubBase7Stub159Ev
    _ZN14nsXPTCStubBase7Stub160Ev
    _ZN14nsXPTCStubBase7Stub161Ev
    _ZN14nsXPTCStubBase7Stub162Ev
    _ZN14nsXPTCStubBase7Stub163Ev
    _ZN14nsXPTCStubBase7Stub164Ev
    _ZN14nsXPTCStubBase7Stub165Ev
    _ZN14nsXPTCStubBase7Stub166Ev
    _ZN14nsXPTCStubBase7Stub167Ev
    _ZN14nsXPTCStubBase7Stub168Ev
    _ZN14nsXPTCStubBase7Stub169Ev
    _ZN14nsXPTCStubBase7Stub170Ev
    _ZN14nsXPTCStubBase7Stub171Ev
    _ZN14nsXPTCStubBase7Stub172Ev
    _ZN14nsXPTCStubBase7Stub173Ev
    _ZN14nsXPTCStubBase7Stub174Ev
    _ZN14nsXPTCStubBase7Stub175Ev
    _ZN14nsXPTCStubBase7Stub176Ev
    _ZN14nsXPTCStubBase7Stub177Ev
    _ZN14nsXPTCStubBase7Stub178Ev
    _ZN14nsXPTCStubBase7Stub179Ev
    _ZN14nsXPTCStubBase7Stub180Ev
    _ZN14nsXPTCStubBase7Stub181Ev
    _ZN14nsXPTCStubBase7Stub182Ev
    _ZN14nsXPTCStubBase7Stub183Ev
    _ZN14nsXPTCStubBase7Stub184Ev
    _ZN14nsXPTCStubBase7Stub185Ev
    _ZN14nsXPTCStubBase7Stub186Ev
    _ZN14nsXPTCStubBase7Stub187Ev
    _ZN14nsXPTCStubBase7Stub188Ev
    _ZN14nsXPTCStubBase7Stub189Ev
    _ZN14nsXPTCStubBase7Stub190Ev
    _ZN14nsXPTCStubBase7Stub191Ev
    _ZN14nsXPTCStubBase7Stub192Ev
    _ZN14nsXPTCStubBase7Stub193Ev
    _ZN14nsXPTCStubBase7Stub194Ev
    _ZN14nsXPTCStubBase7Stub195Ev
    _ZN14nsXPTCStubBase7Stub196Ev
    _ZN14nsXPTCStubBase7Stub197Ev
    _ZN14nsXPTCStubBase7Stub198Ev
    _ZN14nsXPTCStubBase7Stub199Ev
    _ZN14nsXPTCStubBase7Stub200Ev
    _ZN14nsXPTCStubBase7Stub201Ev
    _ZN14nsXPTCStubBase7Stub202Ev
    _ZN14nsXPTCStubBase7Stub203Ev
    _ZN14nsXPTCStubBase7Stub204Ev
    _ZN14nsXPTCStubBase7Stub205Ev
    _ZN14nsXPTCStubBase7Stub206Ev
    _ZN14nsXPTCStubBase7Stub207Ev
    _ZN14nsXPTCStubBase7Stub208Ev
    _ZN14nsXPTCStubBase7Stub209Ev
    _ZN14nsXPTCStubBase7Stub210Ev
    _ZN14nsXPTCStubBase7Stub211Ev
    _ZN14nsXPTCStubBase7Stub212Ev
    _ZN14nsXPTCStubBase7Stub213Ev
    _ZN14nsXPTCStubBase7Stub214Ev
    _ZN14nsXPTCStubBase7Stub215Ev
    _ZN14nsXPTCStubBase7Stub216Ev
    _ZN14nsXPTCStubBase7Stub217Ev
    _ZN14nsXPTCStubBase7Stub218Ev
    _ZN14nsXPTCStubBase7Stub219Ev
    _ZN14nsXPTCStubBase7Stub220Ev
    _ZN14nsXPTCStubBase7Stub221Ev
    _ZN14nsXPTCStubBase7Stub222Ev
    _ZN14nsXPTCStubBase7Stub223Ev
    _ZN14nsXPTCStubBase7Stub224Ev
    _ZN14nsXPTCStubBase7Stub225Ev
    _ZN14nsXPTCStubBase7Stub226Ev
    _ZN14nsXPTCStubBase7Stub227Ev
    _ZN14nsXPTCStubBase7Stub228Ev
    _ZN14nsXPTCStubBase7Stub229Ev
    _ZN14nsXPTCStubBase7Stub230Ev
    _ZN14nsXPTCStubBase7Stub231Ev
    _ZN14nsXPTCStubBase7Stub232Ev
    _ZN14nsXPTCStubBase7Stub233Ev
    _ZN14nsXPTCStubBase7Stub234Ev
    _ZN14nsXPTCStubBase7Stub235Ev
    _ZN14nsXPTCStubBase7Stub236Ev
    _ZN14nsXPTCStubBase7Stub237Ev
    _ZN14nsXPTCStubBase7Stub238Ev
    _ZN14nsXPTCStubBase7Stub239Ev
    _ZN14nsXPTCStubBase7Stub240Ev
    _ZN14nsXPTCStubBase7Stub241Ev
    _ZN14nsXPTCStubBase7Stub242Ev
    _ZN14nsXPTCStubBase7Stub243Ev
    _ZN14nsXPTCStubBase7Stub244Ev
    _ZN14nsXPTCStubBase7Stub245Ev
    _ZN14nsXPTCStubBase7Stub246Ev
    _ZN14nsXPTCStubBase7Stub247Ev
    _ZN14nsXPTCStubBase7Stub248Ev
    _ZN14nsXPTCStubBase7Stub249Ev
    _ZN14nsXPTCStubBase9Sentinel0Ev
    _ZN14nsXPTCStubBase9Sentinel1Ev
    _ZN14nsXPTCStubBase9Sentinel2Ev
    _ZN14nsXPTCStubBase9Sentinel3Ev
    _ZN14nsXPTCStubBase9Sentinel4Ev
    _ZN15nsAutoVoidArray5ClearEv
    _ZN15nsAutoVoidArray6SizeToEi
    _ZN15nsAutoVoidArray7CompactEv
    _ZN15nsAutoVoidArrayC1Ev
    _ZN15nsAutoVoidArrayC2Ev
    _ZN15nsCOMArray_base12RemoveObjectEP11nsISupports
    _ZN15nsCOMArray_base14InsertObjectAtEP11nsISupportsi
    _ZN15nsCOMArray_base14RemoveObjectAtEi
    _ZN15nsCOMArray_base15InsertObjectsAtERKS_i
    _ZN15nsCOMArray_base15ReplaceObjectAtEP11nsISupportsi
    _ZN15nsCOMArray_base5ClearEv
    _ZN15nsCOMArray_baseC1ERKS_
    _ZN15nsCOMArray_baseC2ERKS_
    _ZN15nsCOMArray_baseD1Ev
    _ZN15nsCOMArray_baseD2Ev
    _ZN15nsPrintfCStringC1EPKcz
    _ZN15nsPrintfCStringC1EjPKcz
    _ZN15nsPrintfCStringC2EPKcz
    _ZN15nsPrintfCStringC2EjPKcz
    _ZN15nsSupportsArray11DeleteArrayEv
    _ZN15nsSupportsArray11GrowArrayByEi
    _ZN15nsSupportsArray11LastIndexOfEPK11nsISupports
    _ZN15nsSupportsArray11MoveElementEii
    _ZN15nsSupportsArray13RemoveElementEPK11nsISupportsj
    _ZN15nsSupportsArray14QueryInterfaceERK4nsIDPPv
    _ZN15nsSupportsArray15InsertElementAtEP11nsISupportsj
    _ZN15nsSupportsArray16InsertElementsAtEP16nsISupportsArrayj
    _ZN15nsSupportsArray16RemoveElementsAtEjj
    _ZN15nsSupportsArray16ReplaceElementAtEP11nsISupportsj
    _ZN15nsSupportsArray17EnumerateForwardsEPFiP11nsISupportsPvES2_
    _ZN15nsSupportsArray17IndexOfStartingAtEPK11nsISupportsj
    _ZN15nsSupportsArray17RemoveLastElementEPK11nsISupports
    _ZN15nsSupportsArray18EnumerateBackwardsEPFiP11nsISupportsPvES2_
    _ZN15nsSupportsArray4ReadEP20nsIObjectInputStream
    _ZN15nsSupportsArray5ClearEv
    _ZN15nsSupportsArray5CloneEPP16nsISupportsArray
    _ZN15nsSupportsArray5WriteEP21nsIObjectOutputStream
    _ZN15nsSupportsArray6AddRefEv
    _ZN15nsSupportsArray6CreateEP11nsISupportsRK4nsIDPPv
    _ZN15nsSupportsArray6EqualsEPK16nsISupportsArray
    _ZN15nsSupportsArray6SizeToEi
    _ZN15nsSupportsArray7CompactEv
    _ZN15nsSupportsArray7IndexOfEPK11nsISupports
    _ZN15nsSupportsArray7ReleaseEv
    _ZN15nsSupportsArray9ElementAtEj
    _ZN15nsSupportsArray9EnumerateEPP13nsIEnumerator
    _ZN15nsSupportsArrayC1Ev
    _ZN15nsSupportsArrayC2Ev
    _ZN15nsSupportsArrayD1Ev
    _ZN15nsSupportsArrayD2Ev
    _ZN16nsServiceManager10GetServiceEPKcRK4nsIDPP11nsISupportsP19nsIShutdownListener
    _ZN16nsServiceManager10GetServiceERK4nsIDS2_PP11nsISupportsP19nsIShutdownListener
    _ZN16nsServiceManager14ReleaseServiceEPKcP11nsISupportsP19nsIShutdownListener
    _ZN16nsServiceManager14ReleaseServiceERK4nsIDP11nsISupportsP19nsIShutdownListener
    _ZN16nsServiceManager15RegisterServiceEPKcP11nsISupports
    _ZN16nsServiceManager15RegisterServiceERK4nsIDP11nsISupports
    _ZN16nsServiceManager17UnregisterServiceEPKc
    _ZN16nsServiceManager17UnregisterServiceERK4nsID
    _ZN16nsServiceManager23GetGlobalServiceManagerEPP17nsIServiceManager
    _ZN16nsServiceManager28ShutdownGlobalServiceManagerEPP17nsIServiceManager
    _ZN16nsSmallVoidArray13AppendElementEPv
    _ZN16nsSmallVoidArray13RemoveElementEPv
    _ZN16nsSmallVoidArray14SetSingleChildEPv
    _ZN16nsSmallVoidArray14SwitchToVectorEv
    _ZN16nsSmallVoidArray15InsertElementAtEPvi
    _ZN16nsSmallVoidArray15RemoveElementAtEi
    _ZN16nsSmallVoidArray16InsertElementsAtERK11nsVoidArrayi
    _ZN16nsSmallVoidArray16RemoveElementsAtEii
    _ZN16nsSmallVoidArray16ReplaceElementAtEPvi
    _ZN16nsSmallVoidArray17EnumerateForwardsEPFiPvS0_ES0_
    _ZN16nsSmallVoidArray18EnumerateBackwardsEPFiPvS0_ES0_
    _ZN16nsSmallVoidArray4SortEPFiPKvS1_PvES2_
    _ZN16nsSmallVoidArray5ClearEv
    _ZN16nsSmallVoidArray6SizeToEi
    _ZN16nsSmallVoidArray7CompactEv
    _ZN16nsSmallVoidArrayC1Ev
    _ZN16nsSmallVoidArrayC2Ev
    _ZN16nsSmallVoidArrayD1Ev
    _ZN16nsSmallVoidArrayD2Ev
    _ZN16nsSmallVoidArrayaSERS_
    _ZN17nsArrayEnumeratorC1EP16nsISupportsArray
    _ZN17nsArrayEnumeratorC2EP16nsISupportsArray
    _ZN17nsArrayEnumeratorD1Ev
    _ZN17nsArrayEnumeratorD2Ev
    _ZN17nsObjectHashtable11CopyElementEP12PLDHashTableP15PLDHashEntryHdrjPv
    _ZN17nsObjectHashtable15RemoveAndDeleteEP9nsHashKey
    _ZN17nsObjectHashtable5CloneEv
    _ZN17nsObjectHashtable5ResetEv
    _ZN17nsObjectHashtableC1EPFPvP9nsHashKeyS0_S0_ES0_PFiS2_S0_S0_ES0_ji
    _ZN17nsObjectHashtableC2EPFPvP9nsHashKeyS0_S0_ES0_PFiS2_S0_S0_ES0_ji
    _ZN17nsObjectHashtableD0Ev
    _ZN17nsObjectHashtableD1Ev
    _ZN17nsObjectHashtableD2Ev
    _ZN17nsSegmentedBuffer16AppendNewSegmentEv
    _ZN17nsSegmentedBuffer4InitEjjP9nsIMemory
    _ZN17nsSegmentedBuffer5EmptyEv
    _ZN17nsTraceRefcntImpl12WalkTheStackEP7__sFILE
    _ZN17nsTraceRefcntImpl14DemangleSymbolEPKcPci
    _ZN17nsTraceRefcntImpl14DumpStatisticsENS_14StatisticsTypeEP7__sFILE
    _ZN17nsTraceRefcntImpl15ResetStatisticsEv
    _ZN17nsTraceRefcntImpl18LoadLibrarySymbolsEPKcPv
    _ZN17nsTraceRefcntImpl18SetActivityIsLegalEi
    _ZN17nsTraceRefcntImpl7StartupEv
    _ZN17nsTraceRefcntImpl8ShutdownEv
    _ZN17nsUnionEnumeratorC1EP19nsISimpleEnumeratorS1_
    _ZN17nsUnionEnumeratorC2EP19nsISimpleEnumeratorS1_
    _ZN17nsUnionEnumeratorD1Ev
    _ZN17nsUnionEnumeratorD2Ev
    _ZN18nsComponentManager10InitializeEv
    _ZN18nsComponentManager11FindFactoryERK4nsIDPP10nsIFactory
    _ZN18nsComponentManager12AutoRegisterEiP7nsIFile
    _ZN18nsComponentManager12IsRegisteredERK4nsIDPi
    _ZN18nsComponentManager13FreeLibrariesEv
    _ZN18nsComponentManager14CreateInstanceEPKcP11nsISupportsRK4nsIDPPv
    _ZN18nsComponentManager14CreateInstanceERK4nsIDP11nsISupportsS2_PPv
    _ZN18nsComponentManager14GetClassObjectERK4nsIDS2_PPv
    _ZN18nsComponentManager15EnumerateCLSIDsEPP13nsIEnumerator
    _ZN18nsComponentManager15RegisterFactoryERK4nsIDPKcS4_P10nsIFactoryi
    _ZN18nsComponentManager17CLSIDToContractIDEP4nsIDPPcS3_
    _ZN18nsComponentManager17RegisterComponentERK4nsIDPKcS4_S4_ii
    _ZN18nsComponentManager17UnregisterFactoryERK4nsIDP10nsIFactory
    _ZN18nsComponentManager19ContractIDToClassIDEPKcP4nsID
    _ZN18nsComponentManager19UnregisterComponentERK4nsIDPKc
    _ZN18nsComponentManager20EnumerateContractIDsEPP13nsIEnumerator
    _ZN18nsComponentManager20RegisterComponentLibERK4nsIDPKcS4_S4_ii
    _ZN18nsComponentManager21AutoRegisterComponentEiP7nsIFile
    _ZN18nsComponentManager21RegisterComponentSpecERK4nsIDPKcS4_P7nsIFileii
    _ZN18nsComponentManager23AutoUnregisterComponentEiP7nsIFile
    _ZN18nsComponentManager23UnregisterComponentSpecERK4nsIDP7nsIFile
    _ZN18nsVoidHashSetSuper4InitEj
    _ZN18nsVoidHashSetSuper6RemoveEPKv
    _ZN18nsVoidHashSetSuper8AddEntryEPKv
    _ZN18nsVoidHashSetSuper8GetEntryEPKv
    _ZN18nsVoidHashSetSuperC1Ev
    _ZN18nsVoidHashSetSuperC2Ev
    _ZN18nsVoidHashSetSuperD1Ev
    _ZN18nsVoidHashSetSuperD2Ev
    _ZN19nsDirEnumeratorUnixC1Ev
    _ZN19nsDirEnumeratorUnixC2Ev
    _ZN19nsDirEnumeratorUnixD1Ev
    _ZN19nsDirEnumeratorUnixD2Ev
    _ZN19nsInt32HashSetSuper4InitEj
    _ZN19nsInt32HashSetSuper6RemoveEi
    _ZN19nsInt32HashSetSuper8AddEntryEi
    _ZN19nsInt32HashSetSuper8GetEntryEi
    _ZN19nsInt32HashSetSuperC1Ev
    _ZN19nsInt32HashSetSuperC2Ev
    _ZN19nsInt32HashSetSuperD1Ev
    _ZN19nsInt32HashSetSuperD2Ev
    _ZN19nsPromiseFlatString4InitERK11nsSubstring
    _ZN19nsPromiseFlatString4InitERK9nsAString
    _ZN19nsSupportsHashtable13EnumerateCopyEP12PLDHashTableP15PLDHashEntryHdrjPv
    _ZN19nsSupportsHashtable14ReleaseElementEP9nsHashKeyPvS2_
    _ZN19nsSupportsHashtable3GetEP9nsHashKey
    _ZN19nsSupportsHashtable3PutEP9nsHashKeyP11nsISupportsPS3_
    _ZN19nsSupportsHashtable5CloneEv
    _ZN19nsSupportsHashtable5ResetEv
    _ZN19nsSupportsHashtable6RemoveEP9nsHashKeyPP11nsISupports
    _ZN19nsSupportsHashtableD0Ev
    _ZN19nsSupportsHashtableD1Ev
    _ZN19nsSupportsHashtableD2Ev
    _ZN20nsDependentSubstring6RebindERK11nsSubstringjj
    _ZN20nsDependentSubstring6RebindERK9nsAStringjj
    _ZN20nsPromiseFlatCString4InitERK10nsACString
    _ZN20nsPromiseFlatCString4InitERK12nsCSubstring
    _ZN20nsRecyclingAllocator13AddToFreeListEPNS_5BlockE
    _ZN20nsRecyclingAllocator13FindFreeBlockEm
    _ZN20nsRecyclingAllocator17FreeUnusedBucketsEv
    _ZN20nsRecyclingAllocator22nsRecycleTimerCallbackEP8nsITimerPv
    _ZN20nsRecyclingAllocator4FreeEPv
    _ZN20nsRecyclingAllocator4InitEjjPKc
    _ZN20nsRecyclingAllocator6MallocEmi
    _ZN20nsRecyclingAllocatorC1EjjPKc
    _ZN20nsRecyclingAllocatorC2EjjPKc
    _ZN20nsRecyclingAllocatorD1Ev
    _ZN20nsRecyclingAllocatorD2Ev
    _ZN20nsStringHashSetSuper4InitEj
    _ZN20nsStringHashSetSuper6RemoveERK9nsAString
    _ZN20nsStringHashSetSuper8AddEntryERK9nsAString
    _ZN20nsStringHashSetSuper8GetEntryERK9nsAString
    _ZN20nsStringHashSetSuperC1Ev
    _ZN20nsStringHashSetSuperC2Ev
    _ZN20nsStringHashSetSuperD1Ev
    _ZN20nsStringHashSetSuperD2Ev
    _ZN21nsCStringHashSetSuper4InitEj
    _ZN21nsCStringHashSetSuper6RemoveERK10nsACString
    _ZN21nsCStringHashSetSuper8AddEntryERK10nsACString
    _ZN21nsCStringHashSetSuper8GetEntryERK10nsACString
    _ZN21nsCStringHashSetSuperC1Ev
    _ZN21nsCStringHashSetSuperC2Ev
    _ZN21nsCStringHashSetSuperD1Ev
    _ZN21nsCStringHashSetSuperD2Ev
    _ZN21nsDependentCSubstring6RebindERK10nsACStringjj
    _ZN21nsDependentCSubstring6RebindERK12nsCSubstringjj
    _ZN21nsSingletonEnumeratorC1EP11nsISupports
    _ZN21nsSingletonEnumeratorC2EP11nsISupports
    _ZN21nsSingletonEnumeratorD1Ev
    _ZN21nsSingletonEnumeratorD2Ev
    _ZN23nsSupportsWeakReference16GetWeakReferenceEPP16nsIWeakReference
    _ZN4nsID5ParseEPKc
    _ZN5nsCRT12IsAsciiAlphaEt
    _ZN5nsCRT12IsAsciiDigitEt
    _ZN5nsCRT12IsAsciiSpaceEt
    _ZN5nsCRT14BufferHashCodeEPKcj
    _ZN5nsCRT14BufferHashCodeEPKtj
    _ZN5nsCRT14HashCodeAsUTF8EPKtPj
    _ZN5nsCRT5atollEPKc
    _ZN5nsCRT6strcmpEPKtS1_
    _ZN5nsCRT6strdupEPKt
    _ZN5nsCRT6strlenEPKt
    _ZN5nsCRT6strtokEPcPKcPS0_
    _ZN5nsCRT7IsAsciiEPKc
    _ZN5nsCRT7IsAsciiEPKcj
    _ZN5nsCRT7IsAsciiEPKt
    _ZN5nsCRT7IsAsciiEt
    _ZN5nsCRT7IsLowerEc
    _ZN5nsCRT7IsUpperEc
    _ZN5nsCRT7ToLowerEc
    _ZN5nsCRT7ToUpperEc
    _ZN5nsCRT7strncmpEPKtS1_j
    _ZN5nsCRT7strndupEPKtj
    _ZN5nsCRT8HashCodeEPKcPj
    _ZN5nsCRT8HashCodeEPKtPj
    _ZN7nsDebug5AbortEPKci
    _ZN7nsDebug5BreakEPKci
    _ZN7nsDebug7WarningEPKcS1_i
    _ZN7nsDebug9AssertionEPKcS1_S1_i
    _ZN7nsDeque12GrowCapacityEv
    _ZN7nsDeque14SetDeallocatorEP14nsDequeFunctor
    _ZN7nsDeque3PopEv
    _ZN7nsDeque4PeekEv
    _ZN7nsDeque4PushEPv
    _ZN7nsDeque5EmptyEv
    _ZN7nsDeque5EraseEv
    _ZN7nsDeque8PopFrontEv
    _ZN7nsDeque9PeekFrontEv
    _ZN7nsDeque9PushFrontEPv
    _ZN7nsDequeC1EP14nsDequeFunctor
    _ZN7nsDequeC2EP14nsDequeFunctor
    _ZN7nsDequeD1Ev
    _ZN7nsDequeD2Ev
    _ZN7nsIDKeyC1EP20nsIObjectInputStreamPj
    _ZN7nsIDKeyC2EP20nsIObjectInputStreamPj
    _ZN8nsMemory12HeapMinimizeEi
    _ZN8nsMemory22GetGlobalMemoryServiceEv
    _ZN8nsMemory4FreeEPv
    _ZN8nsMemory5AllocEm
    _ZN8nsMemory5CloneEPKvm
    _ZN8nsMemory7ReallocEPvm
    _ZN8nsString10StripCharsEPKc
    _ZN8nsString11AppendFloatEd
    _ZN8nsString11ReplaceCharEPKct
    _ZN8nsString11ReplaceCharEtt
    _ZN8nsString15StripWhitespaceEv
    _ZN8nsString16ReplaceSubstringEPKtS1_
    _ZN8nsString16ReplaceSubstringERKS_S1_
    _ZN8nsString18CompressWhitespaceEii
    _ZN8nsString20AppendWithConversionEPKci
    _ZN8nsString20AppendWithConversionERK10nsACString
    _ZN8nsString20AssignWithConversionEPKci
    _ZN8nsString20AssignWithConversionERK10nsACString
    _ZN8nsString4TrimEPKciii
    _ZN8nsString9AppendIntEii
    _ZN8nsString9AppendIntEli
    _ZN8nsString9SetCharAtEtj
    _ZN8nsString9StripCharEti
    _ZN9nsAString11AppendASCIIEPKc
    _ZN9nsAString11AppendASCIIEPKcj
    _ZN9nsAString11AssignASCIIEPKc
    _ZN9nsAString11AssignASCIIEPKcj
    _ZN9nsAString11SetCapacityEj
    _ZN9nsAString17GetWritableBufferEPPt
    _ZN9nsAString3CutEjj
    _ZN9nsAString6AppendEPKt
    _ZN9nsAString6AppendEPKtj
    _ZN9nsAString6AppendERK16nsSubstringTuple
    _ZN9nsAString6AppendERKS_
    _ZN9nsAString6AppendEt
    _ZN9nsAString6AssignEPKt
    _ZN9nsAString6AssignEPKtj
    _ZN9nsAString6AssignERK16nsSubstringTuple
    _ZN9nsAString6AssignERKS_
    _ZN9nsAString6AssignEt
    _ZN9nsAString6InsertEPKtj
    _ZN9nsAString6InsertEPKtjj
    _ZN9nsAString6InsertERK16nsSubstringTuplej
    _ZN9nsAString6InsertERKS_j
    _ZN9nsAString6InsertEtj
    _ZN9nsAString7ReplaceEjjRK16nsSubstringTuple
    _ZN9nsAString7ReplaceEjjRKS_
    _ZN9nsAString9SetIsVoidEi
    _ZN9nsAString9SetLengthEj
    _ZN9nsAStringD1Ev
    _ZN9nsAStringD2Ev
    _ZN9nsCString10StripCharsEPKc
    _ZN9nsCString11AppendFloatEd
    _ZN9nsCString11ReplaceCharEPKcc
    _ZN9nsCString11ReplaceCharEcc
    _ZN9nsCString15StripWhitespaceEv
    _ZN9nsCString16ReplaceSubstringEPKcS1_
    _ZN9nsCString16ReplaceSubstringERKS_S1_
    _ZN9nsCString18CompressWhitespaceEii
    _ZN9nsCString20AppendWithConversionEPKti
    _ZN9nsCString20AppendWithConversionERK9nsAString
    _ZN9nsCString20AssignWithConversionEPKti
    _ZN9nsCString20AssignWithConversionERK9nsAString
    _ZN9nsCString4TrimEPKciii
    _ZN9nsCString9AppendIntEii
    _ZN9nsCString9AppendIntEli
    _ZN9nsCString9SetCharAtEtj
    _ZN9nsCString9StripCharEci
    _ZN9nsHashKeyD0Ev
    _ZN9nsHashKeyD1Ev
    _ZN9nsHashKeyD2Ev
    _ZN9nsIThread10GetCurrentEPPS_
    _ZN9nsIThread10GetIThreadEP8PRThreadPPS_
    _ZN9nsIThread12IsMainThreadEv
    _ZN9nsIThread13GetMainThreadEPPS_
    _ZN9nsIThread13SetMainThreadEv
    _ZN9nsVariant10InitializeEP20nsDiscriminatedUnion
    _ZN9nsVariant10SetToEmptyEP20nsDiscriminatedUnion
    _ZN9nsVariant11ConvertToIDERK20nsDiscriminatedUnionP4nsID
    _ZN9nsVariant11SetFromBoolEP20nsDiscriminatedUnioni
    _ZN9nsVariant11SetFromCharEP20nsDiscriminatedUnionc
    _ZN9nsVariant11SetFromInt8EP20nsDiscriminatedUnionh
    _ZN9nsVariant12SetFromArrayEP20nsDiscriminatedUniontPK4nsIDjPv
    _ZN9nsVariant12SetFromFloatEP20nsDiscriminatedUnionf
    _ZN9nsVariant12SetFromInt16EP20nsDiscriminatedUnions
    _ZN9nsVariant12SetFromInt32EP20nsDiscriminatedUnioni
    _ZN9nsVariant12SetFromInt64EP20nsDiscriminatedUnionl
    _ZN9nsVariant12SetFromUint8EP20nsDiscriminatedUnionh
    _ZN9nsVariant12SetFromWCharEP20nsDiscriminatedUniont
    _ZN9nsVariant13ConvertToBoolERK20nsDiscriminatedUnionPi
    _ZN9nsVariant13ConvertToCharERK20nsDiscriminatedUnionPc
    _ZN9nsVariant13ConvertToInt8ERK20nsDiscriminatedUnionPh
    _ZN9nsVariant13SetFromDoubleEP20nsDiscriminatedUniond
    _ZN9nsVariant13SetFromStringEP20nsDiscriminatedUnionPKc
    _ZN9nsVariant13SetFromUint16EP20nsDiscriminatedUniont
    _ZN9nsVariant13SetFromUint32EP20nsDiscriminatedUnionj
    _ZN9nsVariant13SetFromUint64EP20nsDiscriminatedUnionm
    _ZN9nsVariant14ConvertToArrayERK20nsDiscriminatedUnionPtP4nsIDPjPPv
    _ZN9nsVariant14ConvertToFloatERK20nsDiscriminatedUnionPf
    _ZN9nsVariant14ConvertToInt16ERK20nsDiscriminatedUnionPs
    _ZN9nsVariant14ConvertToInt32ERK20nsDiscriminatedUnionPi
    _ZN9nsVariant14ConvertToInt64ERK20nsDiscriminatedUnionPl
    _ZN9nsVariant14ConvertToUint8ERK20nsDiscriminatedUnionPh
    _ZN9nsVariant14ConvertToWCharERK20nsDiscriminatedUnionPt
    _ZN9nsVariant14SetFromAStringEP20nsDiscriminatedUnionRK9nsAString
    _ZN9nsVariant14SetFromVariantEP20nsDiscriminatedUnionP10nsIVariant
    _ZN9nsVariant14SetFromWStringEP20nsDiscriminatedUnionPKt
    _ZN9nsVariant15ConvertToDoubleERK20nsDiscriminatedUnionPd
    _ZN9nsVariant15ConvertToStringERK20nsDiscriminatedUnionPPc
    _ZN9nsVariant15ConvertToUint16ERK20nsDiscriminatedUnionPt
    _ZN9nsVariant15ConvertToUint32ERK20nsDiscriminatedUnionPj
    _ZN9nsVariant15ConvertToUint64ERK20nsDiscriminatedUnionPm
    _ZN9nsVariant15SetFromACStringEP20nsDiscriminatedUnionRK10nsACString
    _ZN9nsVariant15SetToEmptyArrayEP20nsDiscriminatedUnion
    _ZN9nsVariant16ConvertToAStringERK20nsDiscriminatedUnionR9nsAString
    _ZN9nsVariant16ConvertToWStringERK20nsDiscriminatedUnionPPt
    _ZN9nsVariant16SetFromISupportsEP20nsDiscriminatedUnionP11nsISupports
    _ZN9nsVariant16SetFromInterfaceEP20nsDiscriminatedUnionRK4nsIDP11nsISupports
    _ZN9nsVariant17ConvertToACStringERK20nsDiscriminatedUnionR10nsACString
    _ZN9nsVariant18ConvertToISupportsERK20nsDiscriminatedUnionPP11nsISupports
    _ZN9nsVariant18ConvertToInterfaceERK20nsDiscriminatedUnionPP4nsIDPPv
    _ZN9nsVariant18SetFromAUTF8StringEP20nsDiscriminatedUnionRK10nsACString
    _ZN9nsVariant20ConvertToAUTF8StringERK20nsDiscriminatedUnionR10nsACString
    _ZN9nsVariant21SetFromStringWithSizeEP20nsDiscriminatedUnionjPKc
    _ZN9nsVariant22SetFromWStringWithSizeEP20nsDiscriminatedUnionjPKt
    _ZN9nsVariant23ConvertToStringWithSizeERK20nsDiscriminatedUnionPjPPc
    _ZN9nsVariant24ConvertToWStringWithSizeERK20nsDiscriminatedUnionPjPPt
    _ZN9nsVariant7CleanupEP20nsDiscriminatedUnion
    _ZN9nsVariant9SetFromIDEP20nsDiscriminatedUnionRK4nsID
    _ZN9nsVariant9SetToVoidEP20nsDiscriminatedUnion
    _ZN9nsVariantC1Ev
    _ZN9nsVariantC2Ev
    _ZN9nsVariantD1Ev
    _ZN9nsVariantD2Ev
    _ZNK10nsACString11EqualsASCIIEPKc
    _ZNK10nsACString11EqualsASCIIEPKcj
    _ZNK10nsACString12IsTerminatedEv
    _ZNK10nsACString17GetReadableBufferEPPKc
    _ZNK10nsACString20LowerCaseEqualsASCIIEPKc
    _ZNK10nsACString20LowerCaseEqualsASCIIEPKcj
    _ZNK10nsACString4LastEv
    _ZNK10nsACString5FirstEv
    _ZNK10nsACString6EqualsEPKc
    _ZNK10nsACString6EqualsEPKcRK19nsCStringComparator
    _ZNK10nsACString6EqualsERKS_
    _ZNK10nsACString6EqualsERKS_RK19nsCStringComparator
    _ZNK10nsACString6IsVoidEv
    _ZNK10nsACString6LengthEv
    _ZNK10nsACString8FindCharEcj
    _ZNK10nsACString9CountCharEc
    _ZNK11nsHashtable5WriteEP21nsIObjectOutputStreamPFjS1_PvE
    _ZNK11nsStringKey5CloneEv
    _ZNK11nsStringKey5WriteEP21nsIObjectOutputStream
    _ZNK11nsStringKey6EqualsEPK9nsHashKey
    _ZNK11nsStringKey8HashCodeEv
    _ZNK11nsSubstring11EqualsASCIIEPKc
    _ZNK11nsSubstring11EqualsASCIIEPKcj
    _ZNK11nsSubstring20LowerCaseEqualsASCIIEPKc
    _ZNK11nsSubstring20LowerCaseEqualsASCIIEPKcj
    _ZNK11nsSubstring6EqualsEPKt
    _ZNK11nsSubstring6EqualsEPKtRK18nsStringComparator
    _ZNK11nsSubstring6EqualsERK9nsAString
    _ZNK11nsSubstring6EqualsERK9nsAStringRK18nsStringComparator
    _ZNK11nsSubstring6EqualsERKS_
    _ZNK11nsSubstring6EqualsERKS_RK18nsStringComparator
    _ZNK11nsSubstring8FindCharEtj
    _ZNK11nsSubstring9CountCharEt
    _ZNK11nsVoidArray7IndexOfEPv
    _ZNK12nsCStringKey5CloneEv
    _ZNK12nsCStringKey5WriteEP21nsIObjectOutputStream
    _ZNK12nsCStringKey6EqualsEPK9nsHashKey
    _ZNK12nsCStringKey8HashCodeEv
    _ZNK12nsCSubstring11EqualsASCIIEPKc
    _ZNK12nsCSubstring11EqualsASCIIEPKcj
    _ZNK12nsCSubstring20LowerCaseEqualsASCIIEPKc
    _ZNK12nsCSubstring20LowerCaseEqualsASCIIEPKcj
    _ZNK12nsCSubstring6EqualsEPKc
    _ZNK12nsCSubstring6EqualsEPKcRK19nsCStringComparator
    _ZNK12nsCSubstring6EqualsERK10nsACString
    _ZNK12nsCSubstring6EqualsERK10nsACStringRK19nsCStringComparator
    _ZNK12nsCSubstring6EqualsERKS_
    _ZNK12nsCSubstring6EqualsERKS_RK19nsCStringComparator
    _ZNK12nsCSubstring8FindCharEcj
    _ZNK12nsCSubstring9CountCharEc
    _ZNK13nsStringArray7IndexOfERK9nsAString
    _ZNK13nsStringArray8StringAtEi
    _ZNK13nsStringArray8StringAtEiR9nsAString
    _ZNK14nsCStringArray17IndexOfIgnoreCaseERK10nsACString
    _ZNK14nsCStringArray7IndexOfERK10nsACString
    _ZNK14nsCStringArray9CStringAtEi
    _ZNK14nsCStringArray9CStringAtEiR10nsACString
    _ZNK14nsGetInterfaceclERK4nsIDPPv
    _ZNK14nsISupportsKey5WriteEP21nsIObjectOutputStream
    _ZNK15nsCOMArray_base13IndexOfObjectEP11nsISupports
    _ZNK15nsQueryReferentclERK4nsIDPPv
    _ZNK16nsQueryElementAtclERK4nsIDPPv
    _ZNK16nsQueryInterfaceclERK4nsIDPPv
    _ZNK16nsSmallVoidArray12GetArraySizeEv
    _ZNK16nsSmallVoidArray5CountEv
    _ZNK16nsSmallVoidArray7IndexOfEPv
    _ZNK16nsSmallVoidArray9ElementAtEi
    _ZNK16nsSubstringTuple13IsDependentOnEPKtS1_
    _ZNK16nsSubstringTuple6LengthEv
    _ZNK16nsSubstringTuple7WriteToEPtj
    _ZNK17nsCSubstringTuple13IsDependentOnEPKcS1_
    _ZNK17nsCSubstringTuple6LengthEv
    _ZNK17nsCSubstringTuple7WriteToEPcj
    _ZNK17nsGetServiceByCIDclERK4nsIDPPv
    _ZNK18nsGetWeakReferenceclERK4nsIDPPv
    _ZNK21nsCreateInstanceByCIDclERK4nsIDPPv
    _ZNK21nsQueryArrayElementAtclERK4nsIDPPv
    _ZNK24nsGetServiceByContractIDclERK4nsIDPPv
    _ZNK25nsDefaultStringComparatorclEPKtS1_j
    _ZNK25nsDefaultStringComparatorclEtt
    _ZNK25nsQueryInterfaceWithErrorclERK4nsIDPPv
    _ZNK26nsDefaultCStringComparatorclEPKcS1_j
    _ZNK26nsDefaultCStringComparatorclEcc
    _ZNK28nsCreateInstanceByContractIDclERK4nsIDPPv
    _ZNK28nsCreateInstanceFromCategoryclERK4nsIDPPv
    _ZNK34nsCaseInsensitiveCStringComparatorclEPKcS1_j
    _ZNK34nsCaseInsensitiveCStringComparatorclEcc
    _ZNK4nsID16ToProvidedStringERA39_c
    _ZNK4nsID8ToStringEv
    _ZNK7nsDeque3EndEv
    _ZNK7nsDeque4LastEv
    _ZNK7nsDeque5BeginEv
    _ZNK7nsDeque7ForEachER14nsDequeFunctor
    _ZNK7nsDeque8ObjectAtEi
    _ZNK7nsDeque9FirstThatER14nsDequeFunctor
    _ZNK7nsIDKey5WriteEP21nsIObjectOutputStream
    _ZNK8nsString13FindCharInSetEPKci
    _ZNK8nsString13FindCharInSetEPKti
    _ZNK8nsString14RFindCharInSetEPKti
    _ZNK8nsString16EqualsIgnoreCaseEPKci
    _ZNK8nsString3MidERS_jj
    _ZNK8nsString4FindEPKciii
    _ZNK8nsString4FindEPKtii
    _ZNK8nsString4FindERK9nsCStringiii
    _ZNK8nsString4FindERKS_ii
    _ZNK8nsString5RFindEPKciii
    _ZNK8nsString5RFindEPKtii
    _ZNK8nsString5RFindERK9nsCStringiii
    _ZNK8nsString5RFindERKS_ii
    _ZNK8nsString7ToFloatEPi
    _ZNK8nsString9RFindCharEtii
    _ZNK8nsString9ToCStringEPcjj
    _ZNK8nsString9ToIntegerEPij
    _ZNK9nsAString11EqualsASCIIEPKc
    _ZNK9nsAString11EqualsASCIIEPKcj
    _ZNK9nsAString12IsTerminatedEv
    _ZNK9nsAString17GetReadableBufferEPPKt
    _ZNK9nsAString20LowerCaseEqualsASCIIEPKc
    _ZNK9nsAString20LowerCaseEqualsASCIIEPKcj
    _ZNK9nsAString4LastEv
    _ZNK9nsAString5FirstEv
    _ZNK9nsAString6EqualsEPKt
    _ZNK9nsAString6EqualsEPKtRK18nsStringComparator
    _ZNK9nsAString6EqualsERKS_
    _ZNK9nsAString6EqualsERKS_RK18nsStringComparator
    _ZNK9nsAString6IsVoidEv
    _ZNK9nsAString6LengthEv
    _ZNK9nsAString8FindCharEtj
    _ZNK9nsAString9CountCharEt
    _ZNK9nsCString13FindCharInSetEPKci
    _ZNK9nsCString14RFindCharInSetEPKci
    _ZNK9nsCString3MidERS_jj
    _ZNK9nsCString4FindEPKciii
    _ZNK9nsCString4FindERKS_iii
    _ZNK9nsCString5RFindEPKciii
    _ZNK9nsCString5RFindERKS_iii
    _ZNK9nsCString7CompareEPKcii
    _ZNK9nsCString7ToFloatEPi
    _ZNK9nsCString9RFindCharEtii
    _ZNK9nsCString9ToIntegerEPij
    _ZNK9nsHashKey5WriteEP21nsIObjectOutputStream
