
  ??0?$_Yarn@D@std@@QAE@ABV01@@Z
  ??0?$_Yarn@D@std@@QAE@PBD@Z
  ??0?$_Yarn@D@std@@QAE@XZ
  ??0?$basic_ios@DU?$char_traits@D@std@@@std@@IAE@XZ
  ??0?$basic_ios@DU?$char_traits@D@std@@@std@@QAE@PAV?$basic_streambuf@DU?$char_traits@D@std@@@1@@Z
  ??0?$basic_ios@GU?$char_traits@G@std@@@std@@IAE@XZ
  ??0?$basic_ios@GU?$char_traits@G@std@@@std@@QAE@PAV?$basic_streambuf@GU?$char_traits@G@std@@@1@@Z
  ??0?$basic_ios@_WU?$char_traits@_W@std@@@std@@IAE@XZ
  ??0?$basic_ios@_WU?$char_traits@_W@std@@@std@@QAE@PAV?$basic_streambuf@_WU?$char_traits@_W@std@@@1@@Z
  ??0?$basic_iostream@DU?$char_traits@D@std@@@std@@QAE@$$QAV01@@Z
  ??0?$basic_iostream@DU?$char_traits@D@std@@@std@@QAE@PAV?$basic_streambuf@DU?$char_traits@D@std@@@1@@Z
  ??0?$basic_iostream@GU?$char_traits@G@std@@@std@@QAE@$$QAV01@@Z
  ??0?$basic_iostream@GU?$char_traits@G@std@@@std@@QAE@PAV?$basic_streambuf@GU?$char_traits@G@std@@@1@@Z
  ??0?$basic_iostream@_WU?$char_traits@_W@std@@@std@@QAE@$$QAV01@@Z
  ??0?$basic_iostream@_WU?$char_traits@_W@std@@@std@@QAE@PAV?$basic_streambuf@_WU?$char_traits@_W@std@@@1@@Z
  ??0?$basic_istream@DU?$char_traits@D@std@@@std@@QAE@$$QAV01@@Z
  ??0?$basic_istream@DU?$char_traits@D@std@@@std@@QAE@PAV?$basic_streambuf@DU?$char_traits@D@std@@@1@_N1@Z
  ??0?$basic_istream@DU?$char_traits@D@std@@@std@@QAE@PAV?$basic_streambuf@DU?$char_traits@D@std@@@1@_N@Z
  ??0?$basic_istream@DU?$char_traits@D@std@@@std@@QAE@W4_Uninitialized@1@@Z
  ??0?$basic_istream@GU?$char_traits@G@std@@@std@@QAE@$$QAV01@@Z
  ??0?$basic_istream@GU?$char_traits@G@std@@@std@@QAE@PAV?$basic_streambuf@GU?$char_traits@G@std@@@1@_N1@Z
  ??0?$basic_istream@GU?$char_traits@G@std@@@std@@QAE@PAV?$basic_streambuf@GU?$char_traits@G@std@@@1@_N@Z
  ??0?$basic_istream@GU?$char_traits@G@std@@@std@@QAE@W4_Uninitialized@1@@Z
  ??0?$basic_istream@_WU?$char_traits@_W@std@@@std@@QAE@$$QAV01@@Z
  ??0?$basic_istream@_WU?$char_traits@_W@std@@@std@@QAE@PAV?$basic_streambuf@_WU?$char_traits@_W@std@@@1@_N1@Z
  ??0?$basic_istream@_WU?$char_traits@_W@std@@@std@@QAE@PAV?$basic_streambuf@_WU?$char_traits@_W@std@@@1@_N@Z
  ??0?$basic_istream@_WU?$char_traits@_W@std@@@std@@QAE@W4_Uninitialized@1@@Z
  ??0?$basic_ostream@DU?$char_traits@D@std@@@std@@QAE@$$QAV01@@Z
  ??0?$basic_ostream@DU?$char_traits@D@std@@@std@@QAE@PAV?$basic_streambuf@DU?$char_traits@D@std@@@1@_N@Z
  ??0?$basic_ostream@DU?$char_traits@D@std@@@std@@QAE@W4_Uninitialized@1@_N@Z
  ??0?$basic_ostream@GU?$char_traits@G@std@@@std@@QAE@$$QAV01@@Z
  ??0?$basic_ostream@GU?$char_traits@G@std@@@std@@QAE@PAV?$basic_streambuf@GU?$char_traits@G@std@@@1@_N@Z
  ??0?$basic_ostream@GU?$char_traits@G@std@@@std@@QAE@W4_Uninitialized@1@_N@Z
  ??0?$basic_ostream@_WU?$char_traits@_W@std@@@std@@QAE@$$QAV01@@Z
  ??0?$basic_ostream@_WU?$char_traits@_W@std@@@std@@QAE@PAV?$basic_streambuf@_WU?$char_traits@_W@std@@@1@_N@Z
  ??0?$basic_ostream@_WU?$char_traits@_W@std@@@std@@QAE@W4_Uninitialized@1@_N@Z
  ??0?$basic_streambuf@DU?$char_traits@D@std@@@std@@IAE@ABV01@@Z
  ??0?$basic_streambuf@DU?$char_traits@D@std@@@std@@IAE@W4_Uninitialized@1@@Z
  ??0?$basic_streambuf@DU?$char_traits@D@std@@@std@@IAE@XZ
  ??0?$basic_streambuf@GU?$char_traits@G@std@@@std@@IAE@ABV01@@Z
  ??0?$basic_streambuf@GU?$char_traits@G@std@@@std@@IAE@W4_Uninitialized@1@@Z
  ??0?$basic_streambuf@GU?$char_traits@G@std@@@std@@IAE@XZ
  ??0?$basic_streambuf@_WU?$char_traits@_W@std@@@std@@IAE@ABV01@@Z
  ??0?$basic_streambuf@_WU?$char_traits@_W@std@@@std@@IAE@W4_Uninitialized@1@@Z
  ??0?$basic_streambuf@_WU?$char_traits@_W@std@@@std@@IAE@XZ
  ??0?$codecvt@DDH@std@@QAE@ABV_Locinfo@1@I@Z
  ??0?$codecvt@DDH@std@@QAE@I@Z
  ??0?$codecvt@GDH@std@@QAE@ABV_Locinfo@1@I@Z
  ??0?$codecvt@GDH@std@@QAE@I@Z
  ??0?$codecvt@_WDH@std@@QAE@ABV_Locinfo@1@I@Z
  ??0?$codecvt@_WDH@std@@QAE@I@Z
  ??0?$ctype@D@std@@QAE@ABV_Locinfo@1@I@Z
  ??0?$ctype@D@std@@QAE@PBF_NI@Z
  ??0?$ctype@G@std@@QAE@ABV_Locinfo@1@I@Z
  ??0?$ctype@G@std@@QAE@I@Z
  ??0?$ctype@_W@std@@QAE@ABV_Locinfo@1@I@Z
  ??0?$ctype@_W@std@@QAE@I@Z
  ??0?$num_get@DV?$istreambuf_iterator@DU?$char_traits@D@std@@@std@@@std@@QAE@ABV_Locinfo@1@I@Z
  ??0?$num_get@DV?$istreambuf_iterator@DU?$char_traits@D@std@@@std@@@std@@QAE@I@Z
  ??0?$num_get@GV?$istreambuf_iterator@GU?$char_traits@G@std@@@std@@@std@@QAE@ABV_Locinfo@1@I@Z
  ??0?$num_get@GV?$istreambuf_iterator@GU?$char_traits@G@std@@@std@@@std@@QAE@I@Z
  ??0?$num_get@_WV?$istreambuf_iterator@_WU?$char_traits@_W@std@@@std@@@std@@QAE@ABV_Locinfo@1@I@Z
  ??0?$num_get@_WV?$istreambuf_iterator@_WU?$char_traits@_W@std@@@std@@@std@@QAE@I@Z
  ??0?$num_put@DV?$ostreambuf_iterator@DU?$char_traits@D@std@@@std@@@std@@QAE@ABV_Locinfo@1@I@Z
  ??0?$num_put@DV?$ostreambuf_iterator@DU?$char_traits@D@std@@@std@@@std@@QAE@I@Z
  ??0?$num_put@GV?$ostreambuf_iterator@GU?$char_traits@G@std@@@std@@@std@@QAE@ABV_Locinfo@1@I@Z
  ??0?$num_put@GV?$ostreambuf_iterator@GU?$char_traits@G@std@@@std@@@std@@QAE@I@Z
  ??0?$num_put@_WV?$ostreambuf_iterator@_WU?$char_traits@_W@std@@@std@@@std@@QAE@ABV_Locinfo@1@I@Z
  ??0?$num_put@_WV?$ostreambuf_iterator@_WU?$char_traits@_W@std@@@std@@@std@@QAE@I@Z
  ??0?$time_get@DV?$istreambuf_iterator@DU?$char_traits@D@std@@@std@@@std@@IAE@PBDI@Z
  ??0?$time_get@DV?$istreambuf_iterator@DU?$char_traits@D@std@@@std@@@std@@QAE@ABV_Locinfo@1@I@Z
  ??0?$time_get@DV?$istreambuf_iterator@DU?$char_traits@D@std@@@std@@@std@@QAE@I@Z
  ??0?$time_get@GV?$istreambuf_iterator@GU?$char_traits@G@std@@@std@@@std@@IAE@PBDI@Z
  ??0?$time_get@GV?$istreambuf_iterator@GU?$char_traits@G@std@@@std@@@std@@QAE@ABV_Locinfo@1@I@Z
  ??0?$time_get@GV?$istreambuf_iterator@GU?$char_traits@G@std@@@std@@@std@@QAE@I@Z
  ??0?$time_get@_WV?$istreambuf_iterator@_WU?$char_traits@_W@std@@@std@@@std@@IAE@PBDI@Z
  ??0?$time_get@_WV?$istreambuf_iterator@_WU?$char_traits@_W@std@@@std@@@std@@QAE@ABV_Locinfo@1@I@Z
  ??0?$time_get@_WV?$istreambuf_iterator@_WU?$char_traits@_W@std@@@std@@@std@@QAE@I@Z
  ??0?$time_put@DV?$ostreambuf_iterator@DU?$char_traits@D@std@@@std@@@std@@QAE@ABV_Locinfo@1@I@Z
  ??0?$time_put@DV?$ostreambuf_iterator@DU?$char_traits@D@std@@@std@@@std@@QAE@I@Z
  ??0?$time_put@GV?$ostreambuf_iterator@GU?$char_traits@G@std@@@std@@@std@@IAE@PBDI@Z
  ??0?$time_put@GV?$ostreambuf_iterator@GU?$char_traits@G@std@@@std@@@std@@QAE@ABV_Locinfo@1@I@Z
  ??0?$time_put@GV?$ostreambuf_iterator@GU?$char_traits@G@std@@@std@@@std@@QAE@I@Z
  ??0?$time_put@_WV?$ostreambuf_iterator@_WU?$char_traits@_W@std@@@std@@@std@@IAE@PBDI@Z
  ??0?$time_put@_WV?$ostreambuf_iterator@_WU?$char_traits@_W@std@@@std@@@std@@QAE@ABV_Locinfo@1@I@Z
  ??0?$time_put@_WV?$ostreambuf_iterator@_WU?$char_traits@_W@std@@@std@@@std@@QAE@I@Z
  ??0Init@ios_base@std@@QAE@XZ
  ??0_Concurrent_queue_base_v4@details@Concurrency@@IAE@I@Z
  ??0_Concurrent_queue_iterator_base_v4@details@Concurrency@@IAE@ABV_Concurrent_queue_base_v4@12@@Z
  ??0_Container_base12@std@@QAE@ABU01@@Z
  ??0_Container_base12@std@@QAE@XZ
  ??0_Init_locks@std@@QAE@XZ
  ??0_Locimp@locale@std@@AAE@ABV012@@Z
  ??0_Locimp@locale@std@@AAE@_N@Z
  ??0_Locinfo@std@@QAE@HPBD@Z
  ??0_Locinfo@std@@QAE@PBD@Z
  ??0_Lockit@std@@QAE@H@Z
  ??0_Lockit@std@@QAE@XZ
  ??0_Mutex@std@@QAE@W4_Uninitialized@1@@Z
  ??0_Mutex@std@@QAE@XZ
  ??0_Runtime_object@details@Concurrency@@QAE@H@Z
  ??0_Runtime_object@details@Concurrency@@QAE@XZ
  ??0_Timevec@std@@QAE@ABV01@@Z
  ??0_Timevec@std@@QAE@PAX@Z
  ??0_UShinit@std@@QAE@XZ
  ??0_Winit@std@@QAE@XZ
  ??0agent@Concurrency@@QAE@AAVScheduleGroup@1@@Z
  ??0agent@Concurrency@@QAE@AAVScheduler@1@@Z
  ??0agent@Concurrency@@QAE@XZ
  ??0codecvt_base@std@@QAE@I@Z
  ??0ctype_base@std@@QAE@I@Z
  ??0facet@locale@std@@IAE@I@Z
  ??0id@locale@std@@QAE@I@Z
  ??0ios_base@std@@IAE@XZ
  ??0ios_base@std@@QAE@ABV01@@Z
  ??0time_base@std@@QAE@I@Z
  ??1?$_Yarn@D@std@@QAE@XZ
  ??1?$basic_ios@DU?$char_traits@D@std@@@std@@UAE@XZ
  ??1?$basic_ios@GU?$char_traits@G@std@@@std@@UAE@XZ
  ??1?$basic_ios@_WU?$char_traits@_W@std@@@std@@UAE@XZ
  ??1?$basic_iostream@DU?$char_traits@D@std@@@std@@UAE@XZ
  ??1?$basic_iostream@GU?$char_traits@G@std@@@std@@UAE@XZ
  ??1?$basic_iostream@_WU?$char_traits@_W@std@@@std@@UAE@XZ
  ??1?$basic_istream@DU?$char_traits@D@std@@@std@@UAE@XZ
  ??1?$basic_istream@GU?$char_traits@G@std@@@std@@UAE@XZ
  ??1?$basic_istream@_WU?$char_traits@_W@std@@@std@@UAE@XZ
  ??1?$basic_ostream@DU?$char_traits@D@std@@@std@@UAE@XZ
  ??1?$basic_ostream@GU?$char_traits@G@std@@@std@@UAE@XZ
  ??1?$basic_ostream@_WU?$char_traits@_W@std@@@std@@UAE@XZ
  ??1?$basic_streambuf@DU?$char_traits@D@std@@@std@@UAE@XZ
  ??1?$basic_streambuf@GU?$char_traits@G@std@@@std@@UAE@XZ
  ??1?$basic_streambuf@_WU?$char_traits@_W@std@@@std@@UAE@XZ
  ??1?$codecvt@DDH@std@@MAE@XZ
  ??1?$codecvt@GDH@std@@MAE@XZ
  ??1?$codecvt@_WDH@std@@MAE@XZ
  ??1?$ctype@D@std@@MAE@XZ
  ??1?$ctype@G@std@@MAE@XZ
  ??1?$ctype@_W@std@@MAE@XZ
  ??1?$num_get@DV?$istreambuf_iterator@DU?$char_traits@D@std@@@std@@@std@@MAE@XZ
  ??1?$num_get@GV?$istreambuf_iterator@GU?$char_traits@G@std@@@std@@@std@@MAE@XZ
  ??1?$num_get@_WV?$istreambuf_iterator@_WU?$char_traits@_W@std@@@std@@@std@@MAE@XZ
  ??1?$num_put@DV?$ostreambuf_iterator@DU?$char_traits@D@std@@@std@@@std@@MAE@XZ
  ??1?$num_put@GV?$ostreambuf_iterator@GU?$char_traits@G@std@@@std@@@std@@MAE@XZ
  ??1?$num_put@_WV?$ostreambuf_iterator@_WU?$char_traits@_W@std@@@std@@@std@@MAE@XZ
  ??1?$time_get@DV?$istreambuf_iterator@DU?$char_traits@D@std@@@std@@@std@@MAE@XZ
  ??1?$time_get@GV?$istreambuf_iterator@GU?$char_traits@G@std@@@std@@@std@@MAE@XZ
  ??1?$time_get@_WV?$istreambuf_iterator@_WU?$char_traits@_W@std@@@std@@@std@@MAE@XZ
  ??1?$time_put@DV?$ostreambuf_iterator@DU?$char_traits@D@std@@@std@@@std@@MAE@XZ
  ??1?$time_put@GV?$ostreambuf_iterator@GU?$char_traits@G@std@@@std@@@std@@MAE@XZ
  ??1?$time_put@_WV?$ostreambuf_iterator@_WU?$char_traits@_W@std@@@std@@@std@@MAE@XZ
  ??1Init@ios_base@std@@QAE@XZ
  ??1_Concurrent_queue_base_v4@details@Concurrency@@MAE@XZ
  ??1_Concurrent_queue_iterator_base_v4@details@Concurrency@@IAE@XZ
  ??1_Concurrent_vector_base_v4@details@Concurrency@@IAE@XZ
  ??1_Container_base12@std@@QAE@XZ
  ??1_Init_locks@std@@QAE@XZ
  ??1_Locimp@locale@std@@MAE@XZ
  ??1_Locinfo@std@@QAE@XZ
  ??1_Lockit@std@@QAE@XZ
  ??1_Mutex@std@@QAE@XZ
  ??1_Timevec@std@@QAE@XZ
  ??1_UShinit@std@@QAE@XZ
  ??1_Winit@std@@QAE@XZ
  ??1agent@Concurrency@@UAE@XZ
  ??1codecvt_base@std@@UAE@XZ
  ??1ctype_base@std@@UAE@XZ
  ??1facet@locale@std@@UAE@XZ
  ??1ios_base@std@@UAE@XZ
  ??1time_base@std@@UAE@XZ
  ??4?$_Iosb@H@std@@QAEAAV01@ABV01@@Z
  ??4?$_Yarn@D@std@@QAEAAV01@ABV01@@Z
  ??4?$_Yarn@D@std@@QAEAAV01@PBD@Z
  ??4?$basic_iostream@DU?$char_traits@D@std@@@std@@QAEAAV01@$$QAV01@@Z
  ??4?$basic_iostream@GU?$char_traits@G@std@@@std@@QAEAAV01@$$QAV01@@Z
  ??4?$basic_iostream@_WU?$char_traits@_W@std@@@std@@QAEAAV01@$$QAV01@@Z
  ??4?$basic_istream@DU?$char_traits@D@std@@@std@@QAEAAV01@$$QAV01@@Z
  ??4?$basic_istream@GU?$char_traits@G@std@@@std@@QAEAAV01@$$QAV01@@Z
  ??4?$basic_istream@_WU?$char_traits@_W@std@@@std@@QAEAAV01@$$QAV01@@Z
  ??4?$basic_ostream@DU?$char_traits@D@std@@@std@@QAEAAV01@$$QAV01@@Z
  ??4?$basic_ostream@GU?$char_traits@G@std@@@std@@QAEAAV01@$$QAV01@@Z
  ??4?$basic_ostream@_WU?$char_traits@_W@std@@@std@@QAEAAV01@$$QAV01@@Z
  ??4?$basic_streambuf@DU?$char_traits@D@std@@@std@@IAEAAV01@ABV01@@Z
  ??4?$basic_streambuf@GU?$char_traits@G@std@@@std@@IAEAAV01@ABV01@@Z
  ??4?$basic_streambuf@_WU?$char_traits@_W@std@@@std@@IAEAAV01@ABV01@@Z
  ??4?$numeric_limits@C@std@@QAEAAV01@ABV01@@Z
  ??4?$numeric_limits@D@std@@QAEAAV01@ABV01@@Z
  ??4?$numeric_limits@E@std@@QAEAAV01@ABV01@@Z
  ??4?$numeric_limits@F@std@@QAEAAV01@ABV01@@Z
  ??4?$numeric_limits@G@std@@QAEAAV01@ABV01@@Z
  ??4?$numeric_limits@H@std@@QAEAAV01@ABV01@@Z
  ??4?$numeric_limits@I@std@@QAEAAV01@ABV01@@Z
  ??4?$numeric_limits@J@std@@QAEAAV01@ABV01@@Z
  ??4?$numeric_limits@K@std@@QAEAAV01@ABV01@@Z
  ??4?$numeric_limits@M@std@@QAEAAV01@ABV01@@Z
  ??4?$numeric_limits@N@std@@QAEAAV01@ABV01@@Z
  ??4?$numeric_limits@O@std@@QAEAAV01@ABV01@@Z
  ??4?$numeric_limits@_J@std@@QAEAAV01@ABV01@@Z
  ??4?$numeric_limits@_K@std@@QAEAAV01@ABV01@@Z
  ??4?$numeric_limits@_N@std@@QAEAAV01@ABV01@@Z
  ??4?$numeric_limits@_W@std@@QAEAAV01@ABV01@@Z
  ??4Init@ios_base@std@@QAEAAV012@ABV012@@Z
  ??4_Container_base0@std@@QAEAAU01@ABU01@@Z
  ??4_Container_base12@std@@QAEAAU01@ABU01@@Z
  ??4_Init_locks@std@@QAEAAV01@ABV01@@Z
  ??4_Num_base@std@@QAEAAU01@ABU01@@Z
  ??4_Num_float_base@std@@QAEAAU01@ABU01@@Z
  ??4_Num_int_base@std@@QAEAAU01@ABU01@@Z
  ??4_Timevec@std@@QAEAAV01@ABV01@@Z
  ??4_UShinit@std@@QAEAAV01@ABV01@@Z
  ??4_Winit@std@@QAEAAV01@ABV01@@Z
  ??4ios_base@std@@QAEAAV01@ABV01@@Z
  ??5?$basic_istream@DU?$char_traits@D@std@@@std@@QAEAAV01@AAF@Z
  ??5?$basic_istream@DU?$char_traits@D@std@@@std@@QAEAAV01@AAG@Z
  ??5?$basic_istream@DU?$char_traits@D@std@@@std@@QAEAAV01@AAH@Z
  ??5?$basic_istream@DU?$char_traits@D@std@@@std@@QAEAAV01@AAI@Z
  ??5?$basic_istream@DU?$char_traits@D@std@@@std@@QAEAAV01@AAJ@Z
  ??5?$basic_istream@DU?$char_traits@D@std@@@std@@QAEAAV01@AAK@Z
  ??5?$basic_istream@DU?$char_traits@D@std@@@std@@QAEAAV01@AAM@Z
  ??5?$basic_istream@DU?$char_traits@D@std@@@std@@QAEAAV01@AAN@Z
  ??5?$basic_istream@DU?$char_traits@D@std@@@std@@QAEAAV01@AAO@Z
  ??5?$basic_istream@DU?$char_traits@D@std@@@std@@QAEAAV01@AAPAX@Z
  ??5?$basic_istream@DU?$char_traits@D@std@@@std@@QAEAAV01@AA_J@Z
  ??5?$basic_istream@DU?$char_traits@D@std@@@std@@QAEAAV01@AA_K@Z
  ??5?$basic_istream@DU?$char_traits@D@std@@@std@@QAEAAV01@AA_N@Z
  ??5?$basic_istream@DU?$char_traits@D@std@@@std@@QAEAAV01@P6AAAV01@AAV01@@Z@Z
  ??5?$basic_istream@DU?$char_traits@D@std@@@std@@QAEAAV01@P6AAAV?$basic_ios@DU?$char_traits@D@std@@@1@AAV21@@Z@Z
  ??5?$basic_istream@DU?$char_traits@D@std@@@std@@QAEAAV01@P6AAAVios_base@1@AAV21@@Z@Z
  ??5?$basic_istream@DU?$char_traits@D@std@@@std@@QAEAAV01@PAV?$basic_streambuf@DU?$char_traits@D@std@@@1@@Z
  ??5?$basic_istream@GU?$char_traits@G@std@@@std@@QAEAAV01@AAF@Z
  ??5?$basic_istream@GU?$char_traits@G@std@@@std@@QAEAAV01@AAG@Z
  ??5?$basic_istream@GU?$char_traits@G@std@@@std@@QAEAAV01@AAH@Z
  ??5?$basic_istream@GU?$char_traits@G@std@@@std@@QAEAAV01@AAI@Z
  ??5?$basic_istream@GU?$char_traits@G@std@@@std@@QAEAAV01@AAJ@Z
  ??5?$basic_istream@GU?$char_traits@G@std@@@std@@QAEAAV01@AAK@Z
  ??5?$basic_istream@GU?$char_traits@G@std@@@std@@QAEAAV01@AAM@Z
  ??5?$basic_istream@GU?$char_traits@G@std@@@std@@QAEAAV01@AAN@Z
  ??5?$basic_istream@GU?$char_traits@G@std@@@std@@QAEAAV01@AAO@Z
  ??5?$basic_istream@GU?$char_traits@G@std@@@std@@QAEAAV01@AAPAX@Z
  ??5?$basic_istream@GU?$char_traits@G@std@@@std@@QAEAAV01@AA_J@Z
  ??5?$basic_istream@GU?$char_traits@G@std@@@std@@QAEAAV01@AA_K@Z
  ??5?$basic_istream@GU?$char_traits@G@std@@@std@@QAEAAV01@AA_N@Z
  ??5?$basic_istream@GU?$char_traits@G@std@@@std@@QAEAAV01@P6AAAV01@AAV01@@Z@Z
  ??5?$basic_istream@GU?$char_traits@G@std@@@std@@QAEAAV01@P6AAAV?$basic_ios@GU?$char_traits@G@std@@@1@AAV21@@Z@Z
  ??5?$basic_istream@GU?$char_traits@G@std@@@std@@QAEAAV01@P6AAAVios_base@1@AAV21@@Z@Z
  ??5?$basic_istream@GU?$char_traits@G@std@@@std@@QAEAAV01@PAV?$basic_streambuf@GU?$char_traits@G@std@@@1@@Z
  ??5?$basic_istream@_WU?$char_traits@_W@std@@@std@@QAEAAV01@AAF@Z
  ??5?$basic_istream@_WU?$char_traits@_W@std@@@std@@QAEAAV01@AAG@Z
  ??5?$basic_istream@_WU?$char_traits@_W@std@@@std@@QAEAAV01@AAH@Z
  ??5?$basic_istream@_WU?$char_traits@_W@std@@@std@@QAEAAV01@AAI@Z
  ??5?$basic_istream@_WU?$char_traits@_W@std@@@std@@QAEAAV01@AAJ@Z
  ??5?$basic_istream@_WU?$char_traits@_W@std@@@std@@QAEAAV01@AAK@Z
  ??5?$basic_istream@_WU?$char_traits@_W@std@@@std@@QAEAAV01@AAM@Z
  ??5?$basic_istream@_WU?$char_traits@_W@std@@@std@@QAEAAV01@AAN@Z
  ??5?$basic_istream@_WU?$char_traits@_W@std@@@std@@QAEAAV01@AAO@Z
  ??5?$basic_istream@_WU?$char_traits@_W@std@@@std@@QAEAAV01@AAPAX@Z
  ??5?$basic_istream@_WU?$char_traits@_W@std@@@std@@QAEAAV01@AA_J@Z
  ??5?$basic_istream@_WU?$char_traits@_W@std@@@std@@QAEAAV01@AA_K@Z
  ??5?$basic_istream@_WU?$char_traits@_W@std@@@std@@QAEAAV01@AA_N@Z
  ??5?$basic_istream@_WU?$char_traits@_W@std@@@std@@QAEAAV01@P6AAAV01@AAV01@@Z@Z
  ??5?$basic_istream@_WU?$char_traits@_W@std@@@std@@QAEAAV01@P6AAAV?$basic_ios@_WU?$char_traits@_W@std@@@1@AAV21@@Z@Z
  ??5?$basic_istream@_WU?$char_traits@_W@std@@@std@@QAEAAV01@P6AAAVios_base@1@AAV21@@Z@Z
  ??5?$basic_istream@_WU?$char_traits@_W@std@@@std@@QAEAAV01@PAV?$basic_streambuf@_WU?$char_traits@_W@std@@@1@@Z
  ??6?$basic_ostream@DU?$char_traits@D@std@@@std@@QAEAAV01@F@Z
  ??6?$basic_ostream@DU?$char_traits@D@std@@@std@@QAEAAV01@G@Z
  ??6?$basic_ostream@DU?$char_traits@D@std@@@std@@QAEAAV01@H@Z
  ??6?$basic_ostream@DU?$char_traits@D@std@@@std@@QAEAAV01@I@Z
  ??6?$basic_ostream@DU?$char_traits@D@std@@@std@@QAEAAV01@J@Z
  ??6?$basic_ostream@DU?$char_traits@D@std@@@std@@QAEAAV01@K@Z
  ??6?$basic_ostream@DU?$char_traits@D@std@@@std@@QAEAAV01@M@Z
  ??6?$basic_ostream@DU?$char_traits@D@std@@@std@@QAEAAV01@N@Z
  ??6?$basic_ostream@DU?$char_traits@D@std@@@std@@QAEAAV01@O@Z
  ??6?$basic_ostream@DU?$char_traits@D@std@@@std@@QAEAAV01@P6AAAV01@AAV01@@Z@Z
  ??6?$basic_ostream@DU?$char_traits@D@std@@@std@@QAEAAV01@P6AAAV?$basic_ios@DU?$char_traits@D@std@@@1@AAV21@@Z@Z
  ??6?$basic_ostream@DU?$char_traits@D@std@@@std@@QAEAAV01@P6AAAVios_base@1@AAV21@@Z@Z
  ??6?$basic_ostream@DU?$char_traits@D@std@@@std@@QAEAAV01@PAV?$basic_streambuf@DU?$char_traits@D@std@@@1@@Z
  ??6?$basic_ostream@DU?$char_traits@D@std@@@std@@QAEAAV01@PBX@Z
  ??6?$basic_ostream@DU?$char_traits@D@std@@@std@@QAEAAV01@_J@Z
  ??6?$basic_ostream@DU?$char_traits@D@std@@@std@@QAEAAV01@_K@Z
  ??6?$basic_ostream@DU?$char_traits@D@std@@@std@@QAEAAV01@_N@Z
  ??6?$basic_ostream@GU?$char_traits@G@std@@@std@@QAEAAV01@F@Z
  ??6?$basic_ostream@GU?$char_traits@G@std@@@std@@QAEAAV01@G@Z
  ??6?$basic_ostream@GU?$char_traits@G@std@@@std@@QAEAAV01@H@Z
  ??6?$basic_ostream@GU?$char_traits@G@std@@@std@@QAEAAV01@I@Z
  ??6?$basic_ostream@GU?$char_traits@G@std@@@std@@QAEAAV01@J@Z
  ??6?$basic_ostream@GU?$char_traits@G@std@@@std@@QAEAAV01@K@Z
  ??6?$basic_ostream@GU?$char_traits@G@std@@@std@@QAEAAV01@M@Z
  ??6?$basic_ostream@GU?$char_traits@G@std@@@std@@QAEAAV01@N@Z
  ??6?$basic_ostream@GU?$char_traits@G@std@@@std@@QAEAAV01@O@Z
  ??6?$basic_ostream@GU?$char_traits@G@std@@@std@@QAEAAV01@P6AAAV01@AAV01@@Z@Z
  ??6?$basic_ostream@GU?$char_traits@G@std@@@std@@QAEAAV01@P6AAAV?$basic_ios@GU?$char_traits@G@std@@@1@AAV21@@Z@Z
  ??6?$basic_ostream@GU?$char_traits@G@std@@@std@@QAEAAV01@P6AAAVios_base@1@AAV21@@Z@Z
  ??6?$basic_ostream@GU?$char_traits@G@std@@@std@@QAEAAV01@PAV?$basic_streambuf@GU?$char_traits@G@std@@@1@@Z
  ??6?$basic_ostream@GU?$char_traits@G@std@@@std@@QAEAAV01@PBX@Z
  ??6?$basic_ostream@GU?$char_traits@G@std@@@std@@QAEAAV01@_J@Z
  ??6?$basic_ostream@GU?$char_traits@G@std@@@std@@QAEAAV01@_K@Z
  ??6?$basic_ostream@GU?$char_traits@G@std@@@std@@QAEAAV01@_N@Z
  ??6?$basic_ostream@_WU?$char_traits@_W@std@@@std@@QAEAAV01@F@Z
  ??6?$basic_ostream@_WU?$char_traits@_W@std@@@std@@QAEAAV01@G@Z
  ??6?$basic_ostream@_WU?$char_traits@_W@std@@@std@@QAEAAV01@H@Z
  ??6?$basic_ostream@_WU?$char_traits@_W@std@@@std@@QAEAAV01@I@Z
  ??6?$basic_ostream@_WU?$char_traits@_W@std@@@std@@QAEAAV01@J@Z
  ??6?$basic_ostream@_WU?$char_traits@_W@std@@@std@@QAEAAV01@K@Z
  ??6?$basic_ostream@_WU?$char_traits@_W@std@@@std@@QAEAAV01@M@Z
  ??6?$basic_ostream@_WU?$char_traits@_W@std@@@std@@QAEAAV01@N@Z
  ??6?$basic_ostream@_WU?$char_traits@_W@std@@@std@@QAEAAV01@O@Z
  ??6?$basic_ostream@_WU?$char_traits@_W@std@@@std@@QAEAAV01@P6AAAV01@AAV01@@Z@Z
  ??6?$basic_ostream@_WU?$char_traits@_W@std@@@std@@QAEAAV01@P6AAAV?$basic_ios@_WU?$char_traits@_W@std@@@1@AAV21@@Z@Z
  ??6?$basic_ostream@_WU?$char_traits@_W@std@@@std@@QAEAAV01@P6AAAVios_base@1@AAV21@@Z@Z
  ??6?$basic_ostream@_WU?$char_traits@_W@std@@@std@@QAEAAV01@PAV?$basic_streambuf@_WU?$char_traits@_W@std@@@1@@Z
  ??6?$basic_ostream@_WU?$char_traits@_W@std@@@std@@QAEAAV01@PBX@Z
  ??6?$basic_ostream@_WU?$char_traits@_W@std@@@std@@QAEAAV01@_J@Z
  ??6?$basic_ostream@_WU?$char_traits@_W@std@@@std@@QAEAAV01@_K@Z
  ??6?$basic_ostream@_WU?$char_traits@_W@std@@@std@@QAEAAV01@_N@Z
  ??7ios_base@std@@QBE_NXZ
  ??Bid@locale@std@@QAEIXZ
  ??Bios_base@std@@QBEPAXXZ
  ??_7?$basic_ios@DU?$char_traits@D@std@@@std@@6B@
  ??_7?$basic_ios@GU?$char_traits@G@std@@@std@@6B@
  ??_7?$basic_ios@_WU?$char_traits@_W@std@@@std@@6B@
  ??_7?$basic_iostream@DU?$char_traits@D@std@@@std@@6B@
  ??_7?$basic_iostream@GU?$char_traits@G@std@@@std@@6B@
  ??_7?$basic_iostream@_WU?$char_traits@_W@std@@@std@@6B@
  ??_7?$basic_istream@DU?$char_traits@D@std@@@std@@6B@
  ??_7?$basic_istream@GU?$char_traits@G@std@@@std@@6B@
  ??_7?$basic_istream@_WU?$char_traits@_W@std@@@std@@6B@
  ??_7?$basic_ostream@DU?$char_traits@D@std@@@std@@6B@
  ??_7?$basic_ostream@GU?$char_traits@G@std@@@std@@6B@
  ??_7?$basic_ostream@_WU?$char_traits@_W@std@@@std@@6B@
  ??_7?$basic_streambuf@DU?$char_traits@D@std@@@std@@6B@
  ??_7?$basic_streambuf@GU?$char_traits@G@std@@@std@@6B@
  ??_7?$basic_streambuf@_WU?$char_traits@_W@std@@@std@@6B@
  ??_7?$codecvt@DDH@std@@6B@
  ??_7?$codecvt@GDH@std@@6B@
  ??_7?$codecvt@_WDH@std@@6B@
  ??_7?$ctype@D@std@@6B@
  ??_7?$ctype@G@std@@6B@
  ??_7?$ctype@_W@std@@6B@
  ??_7?$num_get@DV?$istreambuf_iterator@DU?$char_traits@D@std@@@std@@@std@@6B@
  ??_7?$num_get@GV?$istreambuf_iterator@GU?$char_traits@G@std@@@std@@@std@@6B@
  ??_7?$num_get@_WV?$istreambuf_iterator@_WU?$char_traits@_W@std@@@std@@@std@@6B@
  ??_7?$num_put@DV?$ostreambuf_iterator@DU?$char_traits@D@std@@@std@@@std@@6B@
  ??_7?$num_put@GV?$ostreambuf_iterator@GU?$char_traits@G@std@@@std@@@std@@6B@
  ??_7?$num_put@_WV?$ostreambuf_iterator@_WU?$char_traits@_W@std@@@std@@@std@@6B@
  ??_7?$time_get@DV?$istreambuf_iterator@DU?$char_traits@D@std@@@std@@@std@@6B@
  ??_7?$time_get@GV?$istreambuf_iterator@GU?$char_traits@G@std@@@std@@@std@@6B@
  ??_7?$time_get@_WV?$istreambuf_iterator@_WU?$char_traits@_W@std@@@std@@@std@@6B@
  ??_7?$time_put@DV?$ostreambuf_iterator@DU?$char_traits@D@std@@@std@@@std@@6B@
  ??_7?$time_put@GV?$ostreambuf_iterator@GU?$char_traits@G@std@@@std@@@std@@6B@
  ??_7?$time_put@_WV?$ostreambuf_iterator@_WU?$char_traits@_W@std@@@std@@@std@@6B@
  ??_7_Locimp@locale@std@@6B@
  ??_7codecvt_base@std@@6B@
  ??_7ctype_base@std@@6B@
  ??_7ios_base@std@@6B@
  ??_7time_base@std@@6B@
  ??_8?$basic_iostream@DU?$char_traits@D@std@@@std@@7B?$basic_istream@DU?$char_traits@D@std@@@1@@
  ??_8?$basic_iostream@DU?$char_traits@D@std@@@std@@7B?$basic_ostream@DU?$char_traits@D@std@@@1@@
  ??_8?$basic_iostream@GU?$char_traits@G@std@@@std@@7B?$basic_istream@GU?$char_traits@G@std@@@1@@
  ??_8?$basic_iostream@GU?$char_traits@G@std@@@std@@7B?$basic_ostream@GU?$char_traits@G@std@@@1@@
  ??_8?$basic_iostream@_WU?$char_traits@_W@std@@@std@@7B?$basic_istream@_WU?$char_traits@_W@std@@@1@@
  ??_8?$basic_iostream@_WU?$char_traits@_W@std@@@std@@7B?$basic_ostream@_WU?$char_traits@_W@std@@@1@@
  ??_8?$basic_istream@DU?$char_traits@D@std@@@std@@7B@
  ??_8?$basic_istream@GU?$char_traits@G@std@@@std@@7B@
  ??_8?$basic_istream@_WU?$char_traits@_W@std@@@std@@7B@
  ??_8?$basic_ostream@DU?$char_traits@D@std@@@std@@7B@
  ??_8?$basic_ostream@GU?$char_traits@G@std@@@std@@7B@
  ??_8?$basic_ostream@_WU?$char_traits@_W@std@@@std@@7B@
  ??_D?$basic_iostream@DU?$char_traits@D@std@@@std@@QAEXXZ
  ??_D?$basic_iostream@GU?$char_traits@G@std@@@std@@QAEXXZ
  ??_D?$basic_iostream@_WU?$char_traits@_W@std@@@std@@QAEXXZ
  ??_D?$basic_istream@DU?$char_traits@D@std@@@std@@QAEXXZ
  ??_D?$basic_istream@GU?$char_traits@G@std@@@std@@QAEXXZ
  ??_D?$basic_istream@_WU?$char_traits@_W@std@@@std@@QAEXXZ
  ??_D?$basic_ostream@DU?$char_traits@D@std@@@std@@QAEXXZ
  ??_D?$basic_ostream@GU?$char_traits@G@std@@@std@@QAEXXZ
  ??_D?$basic_ostream@_WU?$char_traits@_W@std@@@std@@QAEXXZ
  ??_F?$codecvt@DDH@std@@QAEXXZ
  ??_F?$codecvt@GDH@std@@QAEXXZ
  ??_F?$codecvt@_WDH@std@@QAEXXZ
  ??_F?$ctype@D@std@@QAEXXZ
  ??_F?$ctype@G@std@@QAEXXZ
  ??_F?$ctype@_W@std@@QAEXXZ
  ??_F?$num_get@DV?$istreambuf_iterator@DU?$char_traits@D@std@@@std@@@std@@QAEXXZ
  ??_F?$num_get@GV?$istreambuf_iterator@GU?$char_traits@G@std@@@std@@@std@@QAEXXZ
  ??_F?$num_get@_WV?$istreambuf_iterator@_WU?$char_traits@_W@std@@@std@@@std@@QAEXXZ
  ??_F?$num_put@DV?$ostreambuf_iterator@DU?$char_traits@D@std@@@std@@@std@@QAEXXZ
  ??_F?$num_put@GV?$ostreambuf_iterator@GU?$char_traits@G@std@@@std@@@std@@QAEXXZ
  ??_F?$num_put@_WV?$ostreambuf_iterator@_WU?$char_traits@_W@std@@@std@@@std@@QAEXXZ
  ??_F?$time_get@DV?$istreambuf_iterator@DU?$char_traits@D@std@@@std@@@std@@QAEXXZ
  ??_F?$time_get@GV?$istreambuf_iterator@GU?$char_traits@G@std@@@std@@@std@@QAEXXZ
  ??_F?$time_get@_WV?$istreambuf_iterator@_WU?$char_traits@_W@std@@@std@@@std@@QAEXXZ
  ??_F?$time_put@DV?$ostreambuf_iterator@DU?$char_traits@D@std@@@std@@@std@@QAEXXZ
  ??_F?$time_put@GV?$ostreambuf_iterator@GU?$char_traits@G@std@@@std@@@std@@QAEXXZ
  ??_F?$time_put@_WV?$ostreambuf_iterator@_WU?$char_traits@_W@std@@@std@@@std@@QAEXXZ
  ??_F_Locimp@locale@std@@QAEXXZ
  ??_F_Locinfo@std@@QAEXXZ
  ??_F_Timevec@std@@QAEXXZ
  ??_Fcodecvt_base@std@@QAEXXZ
  ??_Fctype_base@std@@QAEXXZ
  ??_Ffacet@locale@std@@QAEXXZ
  ??_Fid@locale@std@@QAEXXZ
  ??_Ftime_base@std@@QAEXXZ
  ?NFS_Allocate@details@Concurrency@@YAPAXIIPAX@Z
  ?NFS_Free@details@Concurrency@@YAXPAX@Z
  ?NFS_GetLineSize@details@Concurrency@@YAIXZ
  ?_Addcats@_Locinfo@std@@QAEAAV12@HPBD@Z
  ?_Addfac@_Locimp@locale@std@@AAEXPAVfacet@23@I@Z
  ?_Addstd@ios_base@std@@SAXPAV12@@Z
  ?_Advance@_Concurrent_queue_iterator_base_v4@details@Concurrency@@IAEXXZ
  ?_Assign@_Concurrent_queue_iterator_base_v4@details@Concurrency@@IAEXABV123@@Z
  ?_Atexit@@YAXP6AXXZ@Z
  ?_BADOFF@std@@3_JB
  ?_C_str@?$_Yarn@D@std@@QBEPBDXZ
  ?_Callfns@ios_base@std@@AAEXW4event@12@@Z
  ?_Clocptr@_Locimp@locale@std@@0PAV123@A
  ?_Decref@facet@locale@std@@QAEPAV123@XZ
  ?_Donarrow@?$ctype@G@std@@IBEDGD@Z
  ?_Donarrow@?$ctype@_W@std@@IBED_WD@Z
  ?_Dowiden@?$ctype@G@std@@IBEGD@Z
  ?_Dowiden@?$ctype@_W@std@@IBE_WD@Z
  ?_Empty@?$_Yarn@D@std@@QBE_NXZ
  ?_Ffmt@?$num_put@DV?$ostreambuf_iterator@DU?$char_traits@D@std@@@std@@@std@@ABAPADPADDH@Z
  ?_Ffmt@?$num_put@GV?$ostreambuf_iterator@GU?$char_traits@G@std@@@std@@@std@@ABAPADPADDH@Z
  ?_Ffmt@?$num_put@_WV?$ostreambuf_iterator@_WU?$char_traits@_W@std@@@std@@@std@@ABAPADPADDH@Z
  ?_Findarr@ios_base@std@@AAEAAU_Iosarray@12@H@Z
  ?_Fiopen@std@@YAPAU_iobuf@@PBDHH@Z
  ?_Fiopen@std@@YAPAU_iobuf@@PBGHH@Z
  ?_Fiopen@std@@YAPAU_iobuf@@PB_WHH@Z
  ?_Fput@?$num_put@DV?$ostreambuf_iterator@DU?$char_traits@D@std@@@std@@@std@@ABA?AV?$ostreambuf_iterator@DU?$char_traits@D@std@@@2@V32@AAVios_base@2@DPBDIIII@Z
  ?_Fput@?$num_put@GV?$ostreambuf_iterator@GU?$char_traits@G@std@@@std@@@std@@ABA?AV?$ostreambuf_iterator@GU?$char_traits@G@std@@@2@V32@AAVios_base@2@GPBDIIII@Z
  ?_Fput@?$num_put@_WV?$ostreambuf_iterator@_WU?$char_traits@_W@std@@@std@@@std@@ABA?AV?$ostreambuf_iterator@_WU?$char_traits@_W@std@@@2@V32@AAVios_base@2@_WPBDIIII@Z
  ?_GetCombinableSize@details@Concurrency@@YAIXZ
  ?_GetCurrentThreadId@details@Concurrency@@YAKXZ
  ?_Getcat@?$codecvt@DDH@std@@SAIPAPBVfacet@locale@2@PBV42@@Z
  ?_Getcat@?$codecvt@GDH@std@@SAIPAPBVfacet@locale@2@PBV42@@Z
  ?_Getcat@?$codecvt@_WDH@std@@SAIPAPBVfacet@locale@2@PBV42@@Z
  ?_Getcat@?$ctype@D@std@@SAIPAPBVfacet@locale@2@PBV42@@Z
  ?_Getcat@?$ctype@G@std@@SAIPAPBVfacet@locale@2@PBV42@@Z
  ?_Getcat@?$ctype@_W@std@@SAIPAPBVfacet@locale@2@PBV42@@Z
  ?_Getcat@?$num_get@DV?$istreambuf_iterator@DU?$char_traits@D@std@@@std@@@std@@SAIPAPBVfacet@locale@2@PBV42@@Z
  ?_Getcat@?$num_get@GV?$istreambuf_iterator@GU?$char_traits@G@std@@@std@@@std@@SAIPAPBVfacet@locale@2@PBV42@@Z
  ?_Getcat@?$num_get@_WV?$istreambuf_iterator@_WU?$char_traits@_W@std@@@std@@@std@@SAIPAPBVfacet@locale@2@PBV42@@Z
  ?_Getcat@?$num_put@DV?$ostreambuf_iterator@DU?$char_traits@D@std@@@std@@@std@@SAIPAPBVfacet@locale@2@PBV42@@Z
  ?_Getcat@?$num_put@GV?$ostreambuf_iterator@GU?$char_traits@G@std@@@std@@@std@@SAIPAPBVfacet@locale@2@PBV42@@Z
  ?_Getcat@?$num_put@_WV?$ostreambuf_iterator@_WU?$char_traits@_W@std@@@std@@@std@@SAIPAPBVfacet@locale@2@PBV42@@Z
  ?_Getcat@?$time_get@DV?$istreambuf_iterator@DU?$char_traits@D@std@@@std@@@std@@SAIPAPBVfacet@locale@2@PBV42@@Z
  ?_Getcat@?$time_get@GV?$istreambuf_iterator@GU?$char_traits@G@std@@@std@@@std@@SAIPAPBVfacet@locale@2@PBV42@@Z
  ?_Getcat@?$time_get@_WV?$istreambuf_iterator@_WU?$char_traits@_W@std@@@std@@@std@@SAIPAPBVfacet@locale@2@PBV42@@Z
  ?_Getcat@?$time_put@DV?$ostreambuf_iterator@DU?$char_traits@D@std@@@std@@@std@@SAIPAPBVfacet@locale@2@PBV42@@Z
  ?_Getcat@?$time_put@GV?$ostreambuf_iterator@GU?$char_traits@G@std@@@std@@@std@@SAIPAPBVfacet@locale@2@PBV42@@Z
  ?_Getcat@?$time_put@_WV?$ostreambuf_iterator@_WU?$char_traits@_W@std@@@std@@@std@@SAIPAPBVfacet@locale@2@PBV42@@Z
  ?_Getcat@facet@locale@std@@SAIPAPBV123@PBV23@@Z
  ?_Getcoll@_Locinfo@std@@QBE?AU_Collvec@@XZ
  ?_Getctype@_Locinfo@std@@QBE?AU_Ctypevec@@XZ
  ?_Getcvt@_Locinfo@std@@QBE?AU_Cvtvec@@XZ
  ?_Getdateorder@_Locinfo@std@@QBEHXZ
  ?_Getdays@_Locinfo@std@@QBEPBDXZ
  ?_Getfalse@_Locinfo@std@@QBEPBDXZ
  ?_Getffld@?$num_get@DV?$istreambuf_iterator@DU?$char_traits@D@std@@@std@@@std@@ABAHPADAAV?$istreambuf_iterator@DU?$char_traits@D@std@@@2@1AAVios_base@2@PAH@Z
  ?_Getffld@?$num_get@GV?$istreambuf_iterator@GU?$char_traits@G@std@@@std@@@std@@ABAHPADAAV?$istreambuf_iterator@GU?$char_traits@G@std@@@2@1AAVios_base@2@PAH@Z
  ?_Getffld@?$num_get@_WV?$istreambuf_iterator@_WU?$char_traits@_W@std@@@std@@@std@@ABAHPADAAV?$istreambuf_iterator@_WU?$char_traits@_W@std@@@2@1AAVios_base@2@PAH@Z
  ?_Getffldx@?$num_get@DV?$istreambuf_iterator@DU?$char_traits@D@std@@@std@@@std@@ABAHPADAAV?$istreambuf_iterator@DU?$char_traits@D@std@@@2@1AAVios_base@2@PAH@Z
  ?_Getffldx@?$num_get@GV?$istreambuf_iterator@GU?$char_traits@G@std@@@std@@@std@@ABAHPADAAV?$istreambuf_iterator@GU?$char_traits@G@std@@@2@1AAVios_base@2@PAH@Z
  ?_Getffldx@?$num_get@_WV?$istreambuf_iterator@_WU?$char_traits@_W@std@@@std@@@std@@ABAHPADAAV?$istreambuf_iterator@_WU?$char_traits@_W@std@@@2@1AAVios_base@2@PAH@Z
  ?_Getfmt@?$time_get@DV?$istreambuf_iterator@DU?$char_traits@D@std@@@std@@@std@@IBE?AV?$istreambuf_iterator@DU?$char_traits@D@std@@@2@V32@0AAVios_base@2@AAHPAUtm@@PBD@Z
  ?_Getfmt@?$time_get@GV?$istreambuf_iterator@GU?$char_traits@G@std@@@std@@@std@@IBE?AV?$istreambuf_iterator@GU?$char_traits@G@std@@@2@V32@0AAVios_base@2@AAHPAUtm@@PBD@Z
  ?_Getfmt@?$time_get@_WV?$istreambuf_iterator@_WU?$char_traits@_W@std@@@std@@@std@@IBE?AV?$istreambuf_iterator@_WU?$char_traits@_W@std@@@2@V32@0AAVios_base@2@AAHPAUtm@@PBD@Z
  ?_Getgloballocale@locale@std@@CAPAV_Locimp@12@XZ
  ?_Getifld@?$num_get@DV?$istreambuf_iterator@DU?$char_traits@D@std@@@std@@@std@@ABAHPADAAV?$istreambuf_iterator@DU?$char_traits@D@std@@@2@1HABVlocale@2@@Z
  ?_Getifld@?$num_get@GV?$istreambuf_iterator@GU?$char_traits@G@std@@@std@@@std@@ABAHPADAAV?$istreambuf_iterator@GU?$char_traits@G@std@@@2@1HABVlocale@2@@Z
  ?_Getifld@?$num_get@_WV?$istreambuf_iterator@_WU?$char_traits@_W@std@@@std@@@std@@ABAHPADAAV?$istreambuf_iterator@_WU?$char_traits@_W@std@@@2@1HABVlocale@2@@Z
  ?_Getint@?$time_get@DV?$istreambuf_iterator@DU?$char_traits@D@std@@@std@@@std@@ABAHAAV?$istreambuf_iterator@DU?$char_traits@D@std@@@2@0HHAAH@Z
  ?_Getint@?$time_get@GV?$istreambuf_iterator@GU?$char_traits@G@std@@@std@@@std@@ABAHAAV?$istreambuf_iterator@GU?$char_traits@G@std@@@2@0HHAAH@Z
  ?_Getint@?$time_get@_WV?$istreambuf_iterator@_WU?$char_traits@_W@std@@@std@@@std@@ABAHAAV?$istreambuf_iterator@_WU?$char_traits@_W@std@@@2@0HHAAH@Z
  ?_Getlconv@_Locinfo@std@@QBEPBUlconv@@XZ
  ?_Getmonths@_Locinfo@std@@QBEPBDXZ
  ?_Getname@_Locinfo@std@@QBEPBDXZ
  ?_Getpfirst@_Container_base12@std@@QBEPAPAU_Iterator_base12@2@XZ
  ?_Getptr@_Timevec@std@@QBEPAXXZ
  ?_Gettnames@_Locinfo@std@@QBE?AV_Timevec@2@XZ
  ?_Gettrue@_Locinfo@std@@QBEPBDXZ
  ?_Gnavail@?$basic_streambuf@DU?$char_traits@D@std@@@std@@IBE_JXZ
  ?_Gnavail@?$basic_streambuf@GU?$char_traits@G@std@@@std@@IBE_JXZ
  ?_Gnavail@?$basic_streambuf@_WU?$char_traits@_W@std@@@std@@IBE_JXZ
  ?_Gndec@?$basic_streambuf@DU?$char_traits@D@std@@@std@@IAEPADXZ
  ?_Gndec@?$basic_streambuf@GU?$char_traits@G@std@@@std@@IAEPAGXZ
  ?_Gndec@?$basic_streambuf@_WU?$char_traits@_W@std@@@std@@IAEPA_WXZ
  ?_Gninc@?$basic_streambuf@DU?$char_traits@D@std@@@std@@IAEPADXZ
  ?_Gninc@?$basic_streambuf@GU?$char_traits@G@std@@@std@@IAEPAGXZ
  ?_Gninc@?$basic_streambuf@_WU?$char_traits@_W@std@@@std@@IAEPA_WXZ
  ?_Gnpreinc@?$basic_streambuf@DU?$char_traits@D@std@@@std@@IAEPADXZ
  ?_Gnpreinc@?$basic_streambuf@GU?$char_traits@G@std@@@std@@IAEPAGXZ
  ?_Gnpreinc@?$basic_streambuf@_WU?$char_traits@_W@std@@@std@@IAEPA_WXZ
  ?_Hexdig@?$num_get@DV?$istreambuf_iterator@DU?$char_traits@D@std@@@std@@@std@@ABAHDDDD@Z
  ?_Hexdig@?$num_get@GV?$istreambuf_iterator@GU?$char_traits@G@std@@@std@@@std@@ABAHGGGG@Z
  ?_Hexdig@?$num_get@_WV?$istreambuf_iterator@_WU?$char_traits@_W@std@@@std@@@std@@ABAH_W000@Z
  ?_Id_cnt@id@locale@std@@0HA
  ?_Ifmt@?$num_put@DV?$ostreambuf_iterator@DU?$char_traits@D@std@@@std@@@std@@ABAPADPADPBDH@Z
  ?_Ifmt@?$num_put@GV?$ostreambuf_iterator@GU?$char_traits@G@std@@@std@@@std@@ABAPADPADPBDH@Z
  ?_Ifmt@?$num_put@_WV?$ostreambuf_iterator@_WU?$char_traits@_W@std@@@std@@@std@@ABAPADPADPBDH@Z
  ?_Incref@facet@locale@std@@QAEXXZ
  ?_Index@ios_base@std@@0HA
  ?_Init@?$basic_streambuf@DU?$char_traits@D@std@@@std@@IAEXPAPAD0PAH001@Z
  ?_Init@?$basic_streambuf@DU?$char_traits@D@std@@@std@@IAEXXZ
  ?_Init@?$basic_streambuf@GU?$char_traits@G@std@@@std@@IAEXPAPAG0PAH001@Z
  ?_Init@?$basic_streambuf@GU?$char_traits@G@std@@@std@@IAEXXZ
  ?_Init@?$basic_streambuf@_WU?$char_traits@_W@std@@@std@@IAEXPAPA_W0PAH001@Z
  ?_Init@?$basic_streambuf@_WU?$char_traits@_W@std@@@std@@IAEXXZ
  ?_Init@?$codecvt@DDH@std@@IAEXABV_Locinfo@2@@Z
  ?_Init@?$codecvt@GDH@std@@IAEXABV_Locinfo@2@@Z
  ?_Init@?$codecvt@_WDH@std@@IAEXABV_Locinfo@2@@Z
  ?_Init@?$ctype@D@std@@IAEXABV_Locinfo@2@@Z
  ?_Init@?$ctype@G@std@@IAEXABV_Locinfo@2@@Z
  ?_Init@?$ctype@_W@std@@IAEXABV_Locinfo@2@@Z
  ?_Init@?$num_get@DV?$istreambuf_iterator@DU?$char_traits@D@std@@@std@@@std@@IAEXABV_Locinfo@2@@Z
  ?_Init@?$num_get@GV?$istreambuf_iterator@GU?$char_traits@G@std@@@std@@@std@@IAEXABV_Locinfo@2@@Z
  ?_Init@?$num_get@_WV?$istreambuf_iterator@_WU?$char_traits@_W@std@@@std@@@std@@IAEXABV_Locinfo@2@@Z
  ?_Init@?$num_put@DV?$ostreambuf_iterator@DU?$char_traits@D@std@@@std@@@std@@IAEXABV_Locinfo@2@@Z
  ?_Init@?$num_put@GV?$ostreambuf_iterator@GU?$char_traits@G@std@@@std@@@std@@IAEXABV_Locinfo@2@@Z
  ?_Init@?$num_put@_WV?$ostreambuf_iterator@_WU?$char_traits@_W@std@@@std@@@std@@IAEXABV_Locinfo@2@@Z
  ?_Init@?$time_get@DV?$istreambuf_iterator@DU?$char_traits@D@std@@@std@@@std@@IAEXABV_Locinfo@2@@Z
  ?_Init@?$time_get@GV?$istreambuf_iterator@GU?$char_traits@G@std@@@std@@@std@@IAEXABV_Locinfo@2@@Z
  ?_Init@?$time_get@_WV?$istreambuf_iterator@_WU?$char_traits@_W@std@@@std@@@std@@IAEXABV_Locinfo@2@@Z
  ?_Init@?$time_put@DV?$ostreambuf_iterator@DU?$char_traits@D@std@@@std@@@std@@IAEXABV_Locinfo@2@@Z
  ?_Init@?$time_put@GV?$ostreambuf_iterator@GU?$char_traits@G@std@@@std@@@std@@IAEXABV_Locinfo@2@@Z
  ?_Init@?$time_put@_WV?$ostreambuf_iterator@_WU?$char_traits@_W@std@@@std@@@std@@IAEXABV_Locinfo@2@@Z
  ?_Init@ios_base@std@@IAEXXZ
  ?_Init@locale@std@@CAPAV_Locimp@12@XZ
  ?_Init_cnt@Init@ios_base@std@@0HA
  ?_Init_cnt@_UShinit@std@@0HA
  ?_Init_cnt@_Winit@std@@0HA
  ?_Init_cnt_func@Init@ios_base@std@@CAAAHXZ
  ?_Init_ctor@Init@ios_base@std@@CAXPAV123@@Z
  ?_Init_dtor@Init@ios_base@std@@CAXPAV123@@Z
  ?_Init_locks_ctor@_Init_locks@std@@CAXPAV12@@Z
  ?_Init_locks_dtor@_Init_locks@std@@CAXPAV12@@Z
  ?_Internal_assign@_Concurrent_vector_base_v4@details@Concurrency@@IAEXABV123@IP6AXPAXI@ZP6AX1PBXI@Z4@Z
  ?_Internal_capacity@_Concurrent_vector_base_v4@details@Concurrency@@IBEIXZ
  ?_Internal_clear@_Concurrent_vector_base_v4@details@Concurrency@@IAEIP6AXPAXI@Z@Z
  ?_Internal_compact@_Concurrent_vector_base_v4@details@Concurrency@@IAEPAXIPAXP6AX0I@ZP6AX0PBXI@Z@Z
  ?_Internal_copy@_Concurrent_vector_base_v4@details@Concurrency@@IAEXABV123@IP6AXPAXPBXI@Z@Z
  ?_Internal_empty@_Concurrent_queue_base_v4@details@Concurrency@@IBE_NXZ
  ?_Internal_finish_clear@_Concurrent_queue_base_v4@details@Concurrency@@IAEXXZ
  ?_Internal_grow_by@_Concurrent_vector_base_v4@details@Concurrency@@IAEIIIP6AXPAXPBXI@Z1@Z
  ?_Internal_grow_to_at_least_with_result@_Concurrent_vector_base_v4@details@Concurrency@@IAEIIIP6AXPAXPBXI@Z1@Z
  ?_Internal_pop_if_present@_Concurrent_queue_base_v4@details@Concurrency@@IAE_NPAX@Z
  ?_Internal_push@_Concurrent_queue_base_v4@details@Concurrency@@IAEXPBX@Z
  ?_Internal_push_back@_Concurrent_vector_base_v4@details@Concurrency@@IAEPAXIAAI@Z
  ?_Internal_reserve@_Concurrent_vector_base_v4@details@Concurrency@@IAEXIII@Z
  ?_Internal_resize@_Concurrent_vector_base_v4@details@Concurrency@@IAEXIIIP6AXPAXI@ZP6AX0PBXI@Z2@Z
  ?_Internal_size@_Concurrent_queue_base_v4@details@Concurrency@@IBEIXZ
  ?_Internal_swap@_Concurrent_vector_base_v4@details@Concurrency@@IAEXAAV123@@Z
  ?_Internal_throw_exception@_Concurrent_queue_base_v4@details@Concurrency@@IBEXXZ
  ?_Internal_throw_exception@_Concurrent_vector_base_v4@details@Concurrency@@IBEXI@Z
  ?_Ios_base_dtor@ios_base@std@@CAXPAV12@@Z
  ?_Ipfx@?$basic_istream@DU?$char_traits@D@std@@@std@@QAE_N_N@Z
  ?_Ipfx@?$basic_istream@GU?$char_traits@G@std@@@std@@QAE_N_N@Z
  ?_Ipfx@?$basic_istream@_WU?$char_traits@_W@std@@@std@@QAE_N_N@Z
  ?_Iput@?$num_put@DV?$ostreambuf_iterator@DU?$char_traits@D@std@@@std@@@std@@ABA?AV?$ostreambuf_iterator@DU?$char_traits@D@std@@@2@V32@AAVios_base@2@DPADI@Z
  ?_Iput@?$num_put@GV?$ostreambuf_iterator@GU?$char_traits@G@std@@@std@@@std@@ABA?AV?$ostreambuf_iterator@GU?$char_traits@G@std@@@2@V32@AAVios_base@2@GPADI@Z
  ?_Iput@?$num_put@_WV?$ostreambuf_iterator@_WU?$char_traits@_W@std@@@std@@@std@@ABA?AV?$ostreambuf_iterator@_WU?$char_traits@_W@std@@@2@V32@AAVios_base@2@_WPADI@Z
  ?_Locimp_Addfac@_Locimp@locale@std@@CAXPAV123@PAVfacet@23@I@Z
  ?_Locimp_ctor@_Locimp@locale@std@@CAXPAV123@ABV123@@Z
  ?_Locimp_dtor@_Locimp@locale@std@@CAXPAV123@@Z
  ?_Locinfo_Addcats@_Locinfo@std@@SAAAV12@PAV12@HPBD@Z
  ?_Locinfo_ctor@_Locinfo@std@@SAXPAV12@HPBD@Z
  ?_Locinfo_ctor@_Locinfo@std@@SAXPAV12@PBD@Z
  ?_Locinfo_dtor@_Locinfo@std@@SAXPAV12@@Z
  ?_Lock@?$basic_streambuf@DU?$char_traits@D@std@@@std@@UAEXXZ
  ?_Lock@?$basic_streambuf@GU?$char_traits@G@std@@@std@@UAEXXZ
  ?_Lock@?$basic_streambuf@_WU?$char_traits@_W@std@@@std@@UAEXXZ
  ?_Lock@_Mutex@std@@QAEXXZ
  ?_Lockit_ctor@_Lockit@std@@CAXPAV12@@Z
  ?_Lockit_ctor@_Lockit@std@@CAXPAV12@H@Z
  ?_Lockit_ctor@_Lockit@std@@SAXH@Z
  ?_Lockit_dtor@_Lockit@std@@CAXPAV12@@Z
  ?_Lockit_dtor@_Lockit@std@@SAXH@Z
  ?_MP_Add@tr1@std@@YAXQA_K_K@Z
  ?_MP_Get@tr1@std@@YA_KQA_K@Z
  ?_MP_Mul@tr1@std@@YAXQA_K_K1@Z
  ?_MP_Rem@tr1@std@@YAXQA_K_K@Z
  ?_Makeloc@_Locimp@locale@std@@CAPAV123@ABV_Locinfo@3@HPAV123@PBV23@@Z
  ?_Makeushloc@_Locimp@locale@std@@CAXABV_Locinfo@3@HPAV123@PBV23@@Z
  ?_Makewloc@_Locimp@locale@std@@CAXABV_Locinfo@3@HPAV123@PBV23@@Z
  ?_Makexloc@_Locimp@locale@std@@CAXABV_Locinfo@3@HPAV123@PBV23@@Z
  ?_Mtx_delete@threads@stdext@@YAXPAX@Z
  ?_Mtx_lock@threads@stdext@@YAXPAX@Z
  ?_Mtx_new@threads@stdext@@YAXAAPAX@Z
  ?_Mtx_unlock@threads@stdext@@YAXPAX@Z
  ?_Mutex_Lock@_Mutex@std@@CAXPAV12@@Z
  ?_Mutex_Unlock@_Mutex@std@@CAXPAV12@@Z
  ?_Mutex_ctor@_Mutex@std@@CAXPAV12@@Z
  ?_Mutex_dtor@_Mutex@std@@CAXPAV12@@Z
  ?_Nomemory@std@@YAXXZ
  ?_Orphan_all@_Container_base0@std@@QAEXXZ
  ?_Orphan_all@_Container_base12@std@@QAEXXZ
  ?_Osfx@?$basic_ostream@DU?$char_traits@D@std@@@std@@QAEXXZ
  ?_Osfx@?$basic_ostream@GU?$char_traits@G@std@@@std@@QAEXXZ
  ?_Osfx@?$basic_ostream@_WU?$char_traits@_W@std@@@std@@QAEXXZ
  ?_Pnavail@?$basic_streambuf@DU?$char_traits@D@std@@@std@@IBE_JXZ
  ?_Pnavail@?$basic_streambuf@GU?$char_traits@G@std@@@std@@IBE_JXZ
  ?_Pnavail@?$basic_streambuf@_WU?$char_traits@_W@std@@@std@@IBE_JXZ
  ?_Pninc@?$basic_streambuf@DU?$char_traits@D@std@@@std@@IAEPADXZ
  ?_Pninc@?$basic_streambuf@GU?$char_traits@G@std@@@std@@IAEPAGXZ
  ?_Pninc@?$basic_streambuf@_WU?$char_traits@_W@std@@@std@@IAEPA_WXZ
  ?_Ptr_cerr@std@@3PAV?$basic_ostream@DU?$char_traits@D@std@@@1@A
  ?_Ptr_cin@std@@3PAV?$basic_istream@DU?$char_traits@D@std@@@1@A
  ?_Ptr_clog@std@@3PAV?$basic_ostream@DU?$char_traits@D@std@@@1@A
  ?_Ptr_cout@std@@3PAV?$basic_ostream@DU?$char_traits@D@std@@@1@A
  ?_Ptr_wcerr@std@@3PAV?$basic_ostream@GU?$char_traits@G@std@@@1@A
  ?_Ptr_wcerr@std@@3PAV?$basic_ostream@_WU?$char_traits@_W@std@@@1@A
  ?_Ptr_wcin@std@@3PAV?$basic_istream@GU?$char_traits@G@std@@@1@A
  ?_Ptr_wcin@std@@3PAV?$basic_istream@_WU?$char_traits@_W@std@@@1@A
  ?_Ptr_wclog@std@@3PAV?$basic_ostream@GU?$char_traits@G@std@@@1@A
  ?_Ptr_wclog@std@@3PAV?$basic_ostream@_WU?$char_traits@_W@std@@@1@A
  ?_Ptr_wcout@std@@3PAV?$basic_ostream@GU?$char_traits@G@std@@@1@A
  ?_Ptr_wcout@std@@3PAV?$basic_ostream@_WU?$char_traits@_W@std@@@1@A
  ?_Put@?$num_put@DV?$ostreambuf_iterator@DU?$char_traits@D@std@@@std@@@std@@ABA?AV?$ostreambuf_iterator@DU?$char_traits@D@std@@@2@V32@PBDI@Z
  ?_Put@?$num_put@GV?$ostreambuf_iterator@GU?$char_traits@G@std@@@std@@@std@@ABA?AV?$ostreambuf_iterator@GU?$char_traits@G@std@@@2@V32@PBGI@Z
  ?_Put@?$num_put@_WV?$ostreambuf_iterator@_WU?$char_traits@_W@std@@@std@@@std@@ABA?AV?$ostreambuf_iterator@_WU?$char_traits@_W@std@@@2@V32@PB_WI@Z
  ?_Putc@?$num_put@DV?$ostreambuf_iterator@DU?$char_traits@D@std@@@std@@@std@@ABA?AV?$ostreambuf_iterator@DU?$char_traits@D@std@@@2@V32@PBDI@Z
  ?_Putc@?$num_put@GV?$ostreambuf_iterator@GU?$char_traits@G@std@@@std@@@std@@ABA?AV?$ostreambuf_iterator@GU?$char_traits@G@std@@@2@V32@PBDI@Z
  ?_Putc@?$num_put@_WV?$ostreambuf_iterator@_WU?$char_traits@_W@std@@@std@@@std@@ABA?AV?$ostreambuf_iterator@_WU?$char_traits@_W@std@@@2@V32@PBDI@Z
  ?_Putgrouped@?$num_put@DV?$ostreambuf_iterator@DU?$char_traits@D@std@@@std@@@std@@ABA?AV?$ostreambuf_iterator@DU?$char_traits@D@std@@@2@V32@PBDID@Z
  ?_Putgrouped@?$num_put@GV?$ostreambuf_iterator@GU?$char_traits@G@std@@@std@@@std@@ABA?AV?$ostreambuf_iterator@GU?$char_traits@G@std@@@2@V32@PBDIG@Z
  ?_Putgrouped@?$num_put@_WV?$ostreambuf_iterator@_WU?$char_traits@_W@std@@@std@@@std@@ABA?AV?$ostreambuf_iterator@_WU?$char_traits@_W@std@@@2@V32@PBDI_W@Z
  ?_Raise_handler@std@@3P6AXABVexception@stdext@@@ZA
  ?_Random_device@tr1@std@@YAIXZ
  ?_Rep@?$num_put@DV?$ostreambuf_iterator@DU?$char_traits@D@std@@@std@@@std@@ABA?AV?$ostreambuf_iterator@DU?$char_traits@D@std@@@2@V32@DI@Z
  ?_Rep@?$num_put@GV?$ostreambuf_iterator@GU?$char_traits@G@std@@@std@@@std@@ABA?AV?$ostreambuf_iterator@GU?$char_traits@G@std@@@2@V32@GI@Z
  ?_Rep@?$num_put@_WV?$ostreambuf_iterator@_WU?$char_traits@_W@std@@@std@@@std@@ABA?AV?$ostreambuf_iterator@_WU?$char_traits@_W@std@@@2@V32@_WI@Z
  ?_Rng_abort@tr1@std@@YAXPBD@Z
  ?_Segment_index_of@_Concurrent_vector_base_v4@details@Concurrency@@KAII@Z
  ?_Setgloballocale@locale@std@@CAXPAX@Z
  ?_Swap_all@_Container_base0@std@@QAEXAAU12@@Z
  ?_Swap_all@_Container_base12@std@@QAEXAAU12@@Z
  ?_Sync@ios_base@std@@0_NA
  ?_Tidy@?$_Yarn@D@std@@AAEXXZ
  ?_Tidy@?$ctype@D@std@@IAEXXZ
  ?_Tidy@?$time_get@DV?$istreambuf_iterator@DU?$char_traits@D@std@@@std@@@std@@AAEXXZ
  ?_Tidy@?$time_get@GV?$istreambuf_iterator@GU?$char_traits@G@std@@@std@@@std@@AAEXXZ
  ?_Tidy@?$time_get@_WV?$istreambuf_iterator@_WU?$char_traits@_W@std@@@std@@@std@@AAEXXZ
  ?_Tidy@ios_base@std@@AAEXXZ
  ?_Unlock@?$basic_streambuf@DU?$char_traits@D@std@@@std@@UAEXXZ
  ?_Unlock@?$basic_streambuf@GU?$char_traits@G@std@@@std@@UAEXXZ
  ?_Unlock@?$basic_streambuf@_WU?$char_traits@_W@std@@@std@@UAEXXZ
  ?_Unlock@_Mutex@std@@QAEXXZ
  ?_XLgamma@tr1@std@@YAMM@Z
  ?_XLgamma@tr1@std@@YANN@Z
  ?_XLgamma@tr1@std@@YAOO@Z
  ?_Xbad@tr1@std@@YAXW4error_type@regex_constants@12@@Z
  ?_Xfunc@tr1@std@@YAXXZ
  ?_Xinvalid_argument@std@@YAXPBD@Z
  ?_Xlength_error@std@@YAXPBD@Z
  ?_Xmem@tr1@std@@YAXXZ
  ?_Xout_of_range@std@@YAXPBD@Z
  ?_Xoverflow_error@std@@YAXPBD@Z
  ?_Xruntime_error@std@@YAXPBD@Z
  ?always_noconv@codecvt_base@std@@QBE_NXZ
  ?bad@ios_base@std@@QBE_NXZ
  ?c_str@?$_Yarn@D@std@@QBEPBDXZ
  ?cancel@agent@Concurrency@@QAE_NXZ
  ?cerr@std@@3V?$basic_ostream@DU?$char_traits@D@std@@@1@A
  ?cin@std@@3V?$basic_istream@DU?$char_traits@D@std@@@1@A
  ?classic@locale@std@@SAABV12@XZ
  ?classic_table@?$ctype@D@std@@SAPBFXZ
  ?clear@?$basic_ios@DU?$char_traits@D@std@@@std@@QAEXH_N@Z
  ?clear@?$basic_ios@DU?$char_traits@D@std@@@std@@QAEXI@Z
  ?clear@?$basic_ios@GU?$char_traits@G@std@@@std@@QAEXH_N@Z
  ?clear@?$basic_ios@GU?$char_traits@G@std@@@std@@QAEXI@Z
  ?clear@?$basic_ios@_WU?$char_traits@_W@std@@@std@@QAEXH_N@Z
  ?clear@?$basic_ios@_WU?$char_traits@_W@std@@@std@@QAEXI@Z
  ?clear@ios_base@std@@QAEXH@Z
  ?clear@ios_base@std@@QAEXH_N@Z
  ?clear@ios_base@std@@QAEXI@Z
  ?clog@std@@3V?$basic_ostream@DU?$char_traits@D@std@@@1@A
  ?copyfmt@?$basic_ios@DU?$char_traits@D@std@@@std@@QAEAAV12@ABV12@@Z
  ?copyfmt@?$basic_ios@GU?$char_traits@G@std@@@std@@QAEAAV12@ABV12@@Z
  ?copyfmt@?$basic_ios@_WU?$char_traits@_W@std@@@std@@QAEAAV12@ABV12@@Z
  ?copyfmt@ios_base@std@@QAEAAV12@ABV12@@Z
  ?cout@std@@3V?$basic_ostream@DU?$char_traits@D@std@@@1@A
  ?date_order@?$time_get@DV?$istreambuf_iterator@DU?$char_traits@D@std@@@std@@@std@@QBE?AW4dateorder@time_base@2@XZ
  ?date_order@?$time_get@GV?$istreambuf_iterator@GU?$char_traits@G@std@@@std@@@std@@QBE?AW4dateorder@time_base@2@XZ
  ?date_order@?$time_get@_WV?$istreambuf_iterator@_WU?$char_traits@_W@std@@@std@@@std@@QBE?AW4dateorder@time_base@2@XZ
  ?denorm_min@?$numeric_limits@C@std@@SACXZ
  ?denorm_min@?$numeric_limits@D@std@@SADXZ
  ?denorm_min@?$numeric_limits@E@std@@SAEXZ
  ?denorm_min@?$numeric_limits@F@std@@SAFXZ
  ?denorm_min@?$numeric_limits@G@std@@SAGXZ
  ?denorm_min@?$numeric_limits@H@std@@SAHXZ
  ?denorm_min@?$numeric_limits@I@std@@SAIXZ
  ?denorm_min@?$numeric_limits@J@std@@SAJXZ
  ?denorm_min@?$numeric_limits@K@std@@SAKXZ
  ?denorm_min@?$numeric_limits@M@std@@SAMXZ
  ?denorm_min@?$numeric_limits@N@std@@SANXZ
  ?denorm_min@?$numeric_limits@O@std@@SAOXZ
  ?denorm_min@?$numeric_limits@_J@std@@SA_JXZ
  ?denorm_min@?$numeric_limits@_K@std@@SA_KXZ
  ?denorm_min@?$numeric_limits@_N@std@@SA_NXZ
  ?denorm_min@?$numeric_limits@_W@std@@SA_WXZ
  ?digits10@?$numeric_limits@C@std@@2HB
  ?digits10@?$numeric_limits@D@std@@2HB
  ?digits10@?$numeric_limits@E@std@@2HB
  ?digits10@?$numeric_limits@F@std@@2HB
  ?digits10@?$numeric_limits@G@std@@2HB
  ?digits10@?$numeric_limits@H@std@@2HB
  ?digits10@?$numeric_limits@I@std@@2HB
  ?digits10@?$numeric_limits@J@std@@2HB
  ?digits10@?$numeric_limits@K@std@@2HB
  ?digits10@?$numeric_limits@M@std@@2HB
  ?digits10@?$numeric_limits@N@std@@2HB
  ?digits10@?$numeric_limits@O@std@@2HB
  ?digits10@?$numeric_limits@_J@std@@2HB
  ?digits10@?$numeric_limits@_K@std@@2HB
  ?digits10@?$numeric_limits@_N@std@@2HB
  ?digits10@?$numeric_limits@_W@std@@2HB
  ?digits10@_Num_base@std@@2HB
  ?digits@?$numeric_limits@C@std@@2HB
  ?digits@?$numeric_limits@D@std@@2HB
  ?digits@?$numeric_limits@E@std@@2HB
  ?digits@?$numeric_limits@F@std@@2HB
  ?digits@?$numeric_limits@G@std@@2HB
  ?digits@?$numeric_limits@H@std@@2HB
  ?digits@?$numeric_limits@I@std@@2HB
  ?digits@?$numeric_limits@J@std@@2HB
  ?digits@?$numeric_limits@K@std@@2HB
  ?digits@?$numeric_limits@M@std@@2HB
  ?digits@?$numeric_limits@N@std@@2HB
  ?digits@?$numeric_limits@O@std@@2HB
  ?digits@?$numeric_limits@_J@std@@2HB
  ?digits@?$numeric_limits@_K@std@@2HB
  ?digits@?$numeric_limits@_N@std@@2HB
  ?digits@?$numeric_limits@_W@std@@2HB
  ?digits@_Num_base@std@@2HB
  ?do_always_noconv@?$codecvt@GDH@std@@MBE_NXZ
  ?do_always_noconv@?$codecvt@_WDH@std@@MBE_NXZ
  ?do_always_noconv@codecvt_base@std@@MBE_NXZ
  ?do_date_order@?$time_get@DV?$istreambuf_iterator@DU?$char_traits@D@std@@@std@@@std@@MBE?AW4dateorder@time_base@2@XZ
  ?do_date_order@?$time_get@GV?$istreambuf_iterator@GU?$char_traits@G@std@@@std@@@std@@MBE?AW4dateorder@time_base@2@XZ
  ?do_date_order@?$time_get@_WV?$istreambuf_iterator@_WU?$char_traits@_W@std@@@std@@@std@@MBE?AW4dateorder@time_base@2@XZ
  ?do_encoding@codecvt_base@std@@MBEHXZ
  ?do_get@?$num_get@DV?$istreambuf_iterator@DU?$char_traits@D@std@@@std@@@std@@MBE?AV?$istreambuf_iterator@DU?$char_traits@D@std@@@2@V32@0AAVios_base@2@AAHAAG@Z
  ?do_get@?$num_get@DV?$istreambuf_iterator@DU?$char_traits@D@std@@@std@@@std@@MBE?AV?$istreambuf_iterator@DU?$char_traits@D@std@@@2@V32@0AAVios_base@2@AAHAAI@Z
  ?do_get@?$num_get@DV?$istreambuf_iterator@DU?$char_traits@D@std@@@std@@@std@@MBE?AV?$istreambuf_iterator@DU?$char_traits@D@std@@@2@V32@0AAVios_base@2@AAHAAJ@Z
  ?do_get@?$num_get@DV?$istreambuf_iterator@DU?$char_traits@D@std@@@std@@@std@@MBE?AV?$istreambuf_iterator@DU?$char_traits@D@std@@@2@V32@0AAVios_base@2@AAHAAK@Z
  ?do_get@?$num_get@DV?$istreambuf_iterator@DU?$char_traits@D@std@@@std@@@std@@MBE?AV?$istreambuf_iterator@DU?$char_traits@D@std@@@2@V32@0AAVios_base@2@AAHAAM@Z
  ?do_get@?$num_get@DV?$istreambuf_iterator@DU?$char_traits@D@std@@@std@@@std@@MBE?AV?$istreambuf_iterator@DU?$char_traits@D@std@@@2@V32@0AAVios_base@2@AAHAAN@Z
  ?do_get@?$num_get@DV?$istreambuf_iterator@DU?$char_traits@D@std@@@std@@@std@@MBE?AV?$istreambuf_iterator@DU?$char_traits@D@std@@@2@V32@0AAVios_base@2@AAHAAO@Z
  ?do_get@?$num_get@DV?$istreambuf_iterator@DU?$char_traits@D@std@@@std@@@std@@MBE?AV?$istreambuf_iterator@DU?$char_traits@D@std@@@2@V32@0AAVios_base@2@AAHAAPAX@Z
  ?do_get@?$num_get@DV?$istreambuf_iterator@DU?$char_traits@D@std@@@std@@@std@@MBE?AV?$istreambuf_iterator@DU?$char_traits@D@std@@@2@V32@0AAVios_base@2@AAHAA_J@Z
  ?do_get@?$num_get@DV?$istreambuf_iterator@DU?$char_traits@D@std@@@std@@@std@@MBE?AV?$istreambuf_iterator@DU?$char_traits@D@std@@@2@V32@0AAVios_base@2@AAHAA_K@Z
  ?do_get@?$num_get@DV?$istreambuf_iterator@DU?$char_traits@D@std@@@std@@@std@@MBE?AV?$istreambuf_iterator@DU?$char_traits@D@std@@@2@V32@0AAVios_base@2@AAHAA_N@Z
  ?do_get@?$num_get@GV?$istreambuf_iterator@GU?$char_traits@G@std@@@std@@@std@@MBE?AV?$istreambuf_iterator@GU?$char_traits@G@std@@@2@V32@0AAVios_base@2@AAHAAG@Z
  ?do_get@?$num_get@GV?$istreambuf_iterator@GU?$char_traits@G@std@@@std@@@std@@MBE?AV?$istreambuf_iterator@GU?$char_traits@G@std@@@2@V32@0AAVios_base@2@AAHAAI@Z
  ?do_get@?$num_get@GV?$istreambuf_iterator@GU?$char_traits@G@std@@@std@@@std@@MBE?AV?$istreambuf_iterator@GU?$char_traits@G@std@@@2@V32@0AAVios_base@2@AAHAAJ@Z
  ?do_get@?$num_get@GV?$istreambuf_iterator@GU?$char_traits@G@std@@@std@@@std@@MBE?AV?$istreambuf_iterator@GU?$char_traits@G@std@@@2@V32@0AAVios_base@2@AAHAAK@Z
  ?do_get@?$num_get@GV?$istreambuf_iterator@GU?$char_traits@G@std@@@std@@@std@@MBE?AV?$istreambuf_iterator@GU?$char_traits@G@std@@@2@V32@0AAVios_base@2@AAHAAM@Z
  ?do_get@?$num_get@GV?$istreambuf_iterator@GU?$char_traits@G@std@@@std@@@std@@MBE?AV?$istreambuf_iterator@GU?$char_traits@G@std@@@2@V32@0AAVios_base@2@AAHAAN@Z
  ?do_get@?$num_get@GV?$istreambuf_iterator@GU?$char_traits@G@std@@@std@@@std@@MBE?AV?$istreambuf_iterator@GU?$char_traits@G@std@@@2@V32@0AAVios_base@2@AAHAAO@Z
  ?do_get@?$num_get@GV?$istreambuf_iterator@GU?$char_traits@G@std@@@std@@@std@@MBE?AV?$istreambuf_iterator@GU?$char_traits@G@std@@@2@V32@0AAVios_base@2@AAHAAPAX@Z
  ?do_get@?$num_get@GV?$istreambuf_iterator@GU?$char_traits@G@std@@@std@@@std@@MBE?AV?$istreambuf_iterator@GU?$char_traits@G@std@@@2@V32@0AAVios_base@2@AAHAA_J@Z
  ?do_get@?$num_get@GV?$istreambuf_iterator@GU?$char_traits@G@std@@@std@@@std@@MBE?AV?$istreambuf_iterator@GU?$char_traits@G@std@@@2@V32@0AAVios_base@2@AAHAA_K@Z
  ?do_get@?$num_get@GV?$istreambuf_iterator@GU?$char_traits@G@std@@@std@@@std@@MBE?AV?$istreambuf_iterator@GU?$char_traits@G@std@@@2@V32@0AAVios_base@2@AAHAA_N@Z
  ?do_get@?$num_get@_WV?$istreambuf_iterator@_WU?$char_traits@_W@std@@@std@@@std@@MBE?AV?$istreambuf_iterator@_WU?$char_traits@_W@std@@@2@V32@0AAVios_base@2@AAHAAG@Z
  ?do_get@?$num_get@_WV?$istreambuf_iterator@_WU?$char_traits@_W@std@@@std@@@std@@MBE?AV?$istreambuf_iterator@_WU?$char_traits@_W@std@@@2@V32@0AAVios_base@2@AAHAAI@Z
  ?do_get@?$num_get@_WV?$istreambuf_iterator@_WU?$char_traits@_W@std@@@std@@@std@@MBE?AV?$istreambuf_iterator@_WU?$char_traits@_W@std@@@2@V32@0AAVios_base@2@AAHAAJ@Z
  ?do_get@?$num_get@_WV?$istreambuf_iterator@_WU?$char_traits@_W@std@@@std@@@std@@MBE?AV?$istreambuf_iterator@_WU?$char_traits@_W@std@@@2@V32@0AAVios_base@2@AAHAAK@Z
  ?do_get@?$num_get@_WV?$istreambuf_iterator@_WU?$char_traits@_W@std@@@std@@@std@@MBE?AV?$istreambuf_iterator@_WU?$char_traits@_W@std@@@2@V32@0AAVios_base@2@AAHAAM@Z
  ?do_get@?$num_get@_WV?$istreambuf_iterator@_WU?$char_traits@_W@std@@@std@@@std@@MBE?AV?$istreambuf_iterator@_WU?$char_traits@_W@std@@@2@V32@0AAVios_base@2@AAHAAN@Z
  ?do_get@?$num_get@_WV?$istreambuf_iterator@_WU?$char_traits@_W@std@@@std@@@std@@MBE?AV?$istreambuf_iterator@_WU?$char_traits@_W@std@@@2@V32@0AAVios_base@2@AAHAAO@Z
  ?do_get@?$num_get@_WV?$istreambuf_iterator@_WU?$char_traits@_W@std@@@std@@@std@@MBE?AV?$istreambuf_iterator@_WU?$char_traits@_W@std@@@2@V32@0AAVios_base@2@AAHAAPAX@Z
  ?do_get@?$num_get@_WV?$istreambuf_iterator@_WU?$char_traits@_W@std@@@std@@@std@@MBE?AV?$istreambuf_iterator@_WU?$char_traits@_W@std@@@2@V32@0AAVios_base@2@AAHAA_J@Z
  ?do_get@?$num_get@_WV?$istreambuf_iterator@_WU?$char_traits@_W@std@@@std@@@std@@MBE?AV?$istreambuf_iterator@_WU?$char_traits@_W@std@@@2@V32@0AAVios_base@2@AAHAA_K@Z
  ?do_get@?$num_get@_WV?$istreambuf_iterator@_WU?$char_traits@_W@std@@@std@@@std@@MBE?AV?$istreambuf_iterator@_WU?$char_traits@_W@std@@@2@V32@0AAVios_base@2@AAHAA_N@Z
  ?do_get@?$time_get@DV?$istreambuf_iterator@DU?$char_traits@D@std@@@std@@@std@@MBE?AV?$istreambuf_iterator@DU?$char_traits@D@std@@@2@V32@0AAVios_base@2@AAHPAUtm@@DD@Z
  ?do_get@?$time_get@GV?$istreambuf_iterator@GU?$char_traits@G@std@@@std@@@std@@MBE?AV?$istreambuf_iterator@GU?$char_traits@G@std@@@2@V32@0AAVios_base@2@AAHPAUtm@@DD@Z
  ?do_get@?$time_get@_WV?$istreambuf_iterator@_WU?$char_traits@_W@std@@@std@@@std@@MBE?AV?$istreambuf_iterator@_WU?$char_traits@_W@std@@@2@V32@0AAVios_base@2@AAHPAUtm@@DD@Z
  ?do_get_date@?$time_get@DV?$istreambuf_iterator@DU?$char_traits@D@std@@@std@@@std@@MBE?AV?$istreambuf_iterator@DU?$char_traits@D@std@@@2@V32@0AAVios_base@2@AAHPAUtm@@@Z
  ?do_get_date@?$time_get@GV?$istreambuf_iterator@GU?$char_traits@G@std@@@std@@@std@@MBE?AV?$istreambuf_iterator@GU?$char_traits@G@std@@@2@V32@0AAVios_base@2@AAHPAUtm@@@Z
  ?do_get_date@?$time_get@_WV?$istreambuf_iterator@_WU?$char_traits@_W@std@@@std@@@std@@MBE?AV?$istreambuf_iterator@_WU?$char_traits@_W@std@@@2@V32@0AAVios_base@2@AAHPAUtm@@@Z
  ?do_get_monthname@?$time_get@DV?$istreambuf_iterator@DU?$char_traits@D@std@@@std@@@std@@MBE?AV?$istreambuf_iterator@DU?$char_traits@D@std@@@2@V32@0AAVios_base@2@AAHPAUtm@@@Z
  ?do_get_monthname@?$time_get@GV?$istreambuf_iterator@GU?$char_traits@G@std@@@std@@@std@@MBE?AV?$istreambuf_iterator@GU?$char_traits@G@std@@@2@V32@0AAVios_base@2@AAHPAUtm@@@Z
  ?do_get_monthname@?$time_get@_WV?$istreambuf_iterator@_WU?$char_traits@_W@std@@@std@@@std@@MBE?AV?$istreambuf_iterator@_WU?$char_traits@_W@std@@@2@V32@0AAVios_base@2@AAHPAUtm@@@Z
  ?do_get_time@?$time_get@DV?$istreambuf_iterator@DU?$char_traits@D@std@@@std@@@std@@MBE?AV?$istreambuf_iterator@DU?$char_traits@D@std@@@2@V32@0AAVios_base@2@AAHPAUtm@@@Z
  ?do_get_time@?$time_get@GV?$istreambuf_iterator@GU?$char_traits@G@std@@@std@@@std@@MBE?AV?$istreambuf_iterator@GU?$char_traits@G@std@@@2@V32@0AAVios_base@2@AAHPAUtm@@@Z
  ?do_get_time@?$time_get@_WV?$istreambuf_iterator@_WU?$char_traits@_W@std@@@std@@@std@@MBE?AV?$istreambuf_iterator@_WU?$char_traits@_W@std@@@2@V32@0AAVios_base@2@AAHPAUtm@@@Z
  ?do_get_weekday@?$time_get@DV?$istreambuf_iterator@DU?$char_traits@D@std@@@std@@@std@@MBE?AV?$istreambuf_iterator@DU?$char_traits@D@std@@@2@V32@0AAVios_base@2@AAHPAUtm@@@Z
  ?do_get_weekday@?$time_get@GV?$istreambuf_iterator@GU?$char_traits@G@std@@@std@@@std@@MBE?AV?$istreambuf_iterator@GU?$char_traits@G@std@@@2@V32@0AAVios_base@2@AAHPAUtm@@@Z
  ?do_get_weekday@?$time_get@_WV?$istreambuf_iterator@_WU?$char_traits@_W@std@@@std@@@std@@MBE?AV?$istreambuf_iterator@_WU?$char_traits@_W@std@@@2@V32@0AAVios_base@2@AAHPAUtm@@@Z
  ?do_get_year@?$time_get@DV?$istreambuf_iterator@DU?$char_traits@D@std@@@std@@@std@@MBE?AV?$istreambuf_iterator@DU?$char_traits@D@std@@@2@V32@0AAVios_base@2@AAHPAUtm@@@Z
  ?do_get_year@?$time_get@GV?$istreambuf_iterator@GU?$char_traits@G@std@@@std@@@std@@MBE?AV?$istreambuf_iterator@GU?$char_traits@G@std@@@2@V32@0AAVios_base@2@AAHPAUtm@@@Z
  ?do_get_year@?$time_get@_WV?$istreambuf_iterator@_WU?$char_traits@_W@std@@@std@@@std@@MBE?AV?$istreambuf_iterator@_WU?$char_traits@_W@std@@@2@V32@0AAVios_base@2@AAHPAUtm@@@Z
  ?do_in@?$codecvt@DDH@std@@MBEHAAHPBD1AAPBDPAD3AAPAD@Z
  ?do_in@?$codecvt@GDH@std@@MBEHAAHPBD1AAPBDPAG3AAPAG@Z
  ?do_in@?$codecvt@_WDH@std@@MBEHAAHPBD1AAPBDPA_W3AAPA_W@Z
  ?do_is@?$ctype@G@std@@MBEPBGPBG0PAF@Z
  ?do_is@?$ctype@G@std@@MBE_NFG@Z
  ?do_is@?$ctype@_W@std@@MBEPB_WPB_W0PAF@Z
  ?do_is@?$ctype@_W@std@@MBE_NF_W@Z
  ?do_length@?$codecvt@DDH@std@@MBEHABHPBD1I@Z
  ?do_length@?$codecvt@GDH@std@@MBEHABHPBD1I@Z
  ?do_length@?$codecvt@_WDH@std@@MBEHABHPBD1I@Z
  ?do_max_length@?$codecvt@GDH@std@@MBEHXZ
  ?do_max_length@?$codecvt@_WDH@std@@MBEHXZ
  ?do_max_length@codecvt_base@std@@MBEHXZ
  ?do_narrow@?$ctype@D@std@@MBEDDD@Z
  ?do_narrow@?$ctype@D@std@@MBEPBDPBD0DPAD@Z
  ?do_narrow@?$ctype@G@std@@MBEDGD@Z
  ?do_narrow@?$ctype@G@std@@MBEPBGPBG0DPAD@Z
  ?do_narrow@?$ctype@_W@std@@MBED_WD@Z
  ?do_narrow@?$ctype@_W@std@@MBEPB_WPB_W0DPAD@Z
  ?do_out@?$codecvt@DDH@std@@MBEHAAHPBD1AAPBDPAD3AAPAD@Z
  ?do_out@?$codecvt@GDH@std@@MBEHAAHPBG1AAPBGPAD3AAPAD@Z
  ?do_out@?$codecvt@_WDH@std@@MBEHAAHPB_W1AAPB_WPAD3AAPAD@Z
  ?do_put@?$num_put@DV?$ostreambuf_iterator@DU?$char_traits@D@std@@@std@@@std@@MBE?AV?$ostreambuf_iterator@DU?$char_traits@D@std@@@2@V32@AAVios_base@2@DJ@Z
  ?do_put@?$num_put@DV?$ostreambuf_iterator@DU?$char_traits@D@std@@@std@@@std@@MBE?AV?$ostreambuf_iterator@DU?$char_traits@D@std@@@2@V32@AAVios_base@2@DK@Z
  ?do_put@?$num_put@DV?$ostreambuf_iterator@DU?$char_traits@D@std@@@std@@@std@@MBE?AV?$ostreambuf_iterator@DU?$char_traits@D@std@@@2@V32@AAVios_base@2@DN@Z
  ?do_put@?$num_put@DV?$ostreambuf_iterator@DU?$char_traits@D@std@@@std@@@std@@MBE?AV?$ostreambuf_iterator@DU?$char_traits@D@std@@@2@V32@AAVios_base@2@DO@Z
  ?do_put@?$num_put@DV?$ostreambuf_iterator@DU?$char_traits@D@std@@@std@@@std@@MBE?AV?$ostreambuf_iterator@DU?$char_traits@D@std@@@2@V32@AAVios_base@2@DPBX@Z
  ?do_put@?$num_put@DV?$ostreambuf_iterator@DU?$char_traits@D@std@@@std@@@std@@MBE?AV?$ostreambuf_iterator@DU?$char_traits@D@std@@@2@V32@AAVios_base@2@D_J@Z
  ?do_put@?$num_put@DV?$ostreambuf_iterator@DU?$char_traits@D@std@@@std@@@std@@MBE?AV?$ostreambuf_iterator@DU?$char_traits@D@std@@@2@V32@AAVios_base@2@D_K@Z
  ?do_put@?$num_put@DV?$ostreambuf_iterator@DU?$char_traits@D@std@@@std@@@std@@MBE?AV?$ostreambuf_iterator@DU?$char_traits@D@std@@@2@V32@AAVios_base@2@D_N@Z
  ?do_put@?$num_put@GV?$ostreambuf_iterator@GU?$char_traits@G@std@@@std@@@std@@MBE?AV?$ostreambuf_iterator@GU?$char_traits@G@std@@@2@V32@AAVios_base@2@GJ@Z
  ?do_put@?$num_put@GV?$ostreambuf_iterator@GU?$char_traits@G@std@@@std@@@std@@MBE?AV?$ostreambuf_iterator@GU?$char_traits@G@std@@@2@V32@AAVios_base@2@GK@Z
  ?do_put@?$num_put@GV?$ostreambuf_iterator@GU?$char_traits@G@std@@@std@@@std@@MBE?AV?$ostreambuf_iterator@GU?$char_traits@G@std@@@2@V32@AAVios_base@2@GN@Z
  ?do_put@?$num_put@GV?$ostreambuf_iterator@GU?$char_traits@G@std@@@std@@@std@@MBE?AV?$ostreambuf_iterator@GU?$char_traits@G@std@@@2@V32@AAVios_base@2@GO@Z
  ?do_put@?$num_put@GV?$ostreambuf_iterator@GU?$char_traits@G@std@@@std@@@std@@MBE?AV?$ostreambuf_iterator@GU?$char_traits@G@std@@@2@V32@AAVios_base@2@GPBX@Z
  ?do_put@?$num_put@GV?$ostreambuf_iterator@GU?$char_traits@G@std@@@std@@@std@@MBE?AV?$ostreambuf_iterator@GU?$char_traits@G@std@@@2@V32@AAVios_base@2@G_J@Z
  ?do_put@?$num_put@GV?$ostreambuf_iterator@GU?$char_traits@G@std@@@std@@@std@@MBE?AV?$ostreambuf_iterator@GU?$char_traits@G@std@@@2@V32@AAVios_base@2@G_K@Z
  ?do_put@?$num_put@GV?$ostreambuf_iterator@GU?$char_traits@G@std@@@std@@@std@@MBE?AV?$ostreambuf_iterator@GU?$char_traits@G@std@@@2@V32@AAVios_base@2@G_N@Z
  ?do_put@?$num_put@_WV?$ostreambuf_iterator@_WU?$char_traits@_W@std@@@std@@@std@@MBE?AV?$ostreambuf_iterator@_WU?$char_traits@_W@std@@@2@V32@AAVios_base@2@_WJ@Z
  ?do_put@?$num_put@_WV?$ostreambuf_iterator@_WU?$char_traits@_W@std@@@std@@@std@@MBE?AV?$ostreambuf_iterator@_WU?$char_traits@_W@std@@@2@V32@AAVios_base@2@_WK@Z
  ?do_put@?$num_put@_WV?$ostreambuf_iterator@_WU?$char_traits@_W@std@@@std@@@std@@MBE?AV?$ostreambuf_iterator@_WU?$char_traits@_W@std@@@2@V32@AAVios_base@2@_WN@Z
  ?do_put@?$num_put@_WV?$ostreambuf_iterator@_WU?$char_traits@_W@std@@@std@@@std@@MBE?AV?$ostreambuf_iterator@_WU?$char_traits@_W@std@@@2@V32@AAVios_base@2@_WO@Z
  ?do_put@?$num_put@_WV?$ostreambuf_iterator@_WU?$char_traits@_W@std@@@std@@@std@@MBE?AV?$ostreambuf_iterator@_WU?$char_traits@_W@std@@@2@V32@AAVios_base@2@_WPBX@Z
  ?do_put@?$num_put@_WV?$ostreambuf_iterator@_WU?$char_traits@_W@std@@@std@@@std@@MBE?AV?$ostreambuf_iterator@_WU?$char_traits@_W@std@@@2@V32@AAVios_base@2@_W_J@Z
  ?do_put@?$num_put@_WV?$ostreambuf_iterator@_WU?$char_traits@_W@std@@@std@@@std@@MBE?AV?$ostreambuf_iterator@_WU?$char_traits@_W@std@@@2@V32@AAVios_base@2@_W_K@Z
  ?do_put@?$num_put@_WV?$ostreambuf_iterator@_WU?$char_traits@_W@std@@@std@@@std@@MBE?AV?$ostreambuf_iterator@_WU?$char_traits@_W@std@@@2@V32@AAVios_base@2@_W_N@Z
  ?do_put@?$time_put@DV?$ostreambuf_iterator@DU?$char_traits@D@std@@@std@@@std@@MBE?AV?$ostreambuf_iterator@DU?$char_traits@D@std@@@2@V32@AAVios_base@2@DPBUtm@@DD@Z
  ?do_put@?$time_put@GV?$ostreambuf_iterator@GU?$char_traits@G@std@@@std@@@std@@MBE?AV?$ostreambuf_iterator@GU?$char_traits@G@std@@@2@V32@AAVios_base@2@GPBUtm@@DD@Z
  ?do_put@?$time_put@_WV?$ostreambuf_iterator@_WU?$char_traits@_W@std@@@std@@@std@@MBE?AV?$ostreambuf_iterator@_WU?$char_traits@_W@std@@@2@V32@AAVios_base@2@_WPBUtm@@DD@Z
  ?do_scan_is@?$ctype@G@std@@MBEPBGFPBG0@Z
  ?do_scan_is@?$ctype@_W@std@@MBEPB_WFPB_W0@Z
  ?do_scan_not@?$ctype@G@std@@MBEPBGFPBG0@Z
  ?do_scan_not@?$ctype@_W@std@@MBEPB_WFPB_W0@Z
  ?do_tolower@?$ctype@D@std@@MBEDD@Z
  ?do_tolower@?$ctype@D@std@@MBEPBDPADPBD@Z
  ?do_tolower@?$ctype@G@std@@MBEGG@Z
  ?do_tolower@?$ctype@G@std@@MBEPBGPAGPBG@Z
  ?do_tolower@?$ctype@_W@std@@MBEPB_WPA_WPB_W@Z
  ?do_tolower@?$ctype@_W@std@@MBE_W_W@Z
  ?do_toupper@?$ctype@D@std@@MBEDD@Z
  ?do_toupper@?$ctype@D@std@@MBEPBDPADPBD@Z
  ?do_toupper@?$ctype@G@std@@MBEGG@Z
  ?do_toupper@?$ctype@G@std@@MBEPBGPAGPBG@Z
  ?do_toupper@?$ctype@_W@std@@MBEPB_WPA_WPB_W@Z
  ?do_toupper@?$ctype@_W@std@@MBE_W_W@Z
  ?do_unshift@?$codecvt@DDH@std@@MBEHAAHPAD1AAPAD@Z
  ?do_unshift@?$codecvt@GDH@std@@MBEHAAHPAD1AAPAD@Z
  ?do_unshift@?$codecvt@_WDH@std@@MBEHAAHPAD1AAPAD@Z
  ?do_widen@?$ctype@D@std@@MBEDD@Z
  ?do_widen@?$ctype@D@std@@MBEPBDPBD0PAD@Z
  ?do_widen@?$ctype@G@std@@MBEGD@Z
  ?do_widen@?$ctype@G@std@@MBEPBDPBD0PAG@Z
  ?do_widen@?$ctype@_W@std@@MBEPBDPBD0PA_W@Z
  ?do_widen@?$ctype@_W@std@@MBE_WD@Z
  ?done@agent@Concurrency@@IAE_NXZ
  ?eback@?$basic_streambuf@DU?$char_traits@D@std@@@std@@IBEPADXZ
  ?eback@?$basic_streambuf@GU?$char_traits@G@std@@@std@@IBEPAGXZ
  ?eback@?$basic_streambuf@_WU?$char_traits@_W@std@@@std@@IBEPA_WXZ
  ?egptr@?$basic_streambuf@DU?$char_traits@D@std@@@std@@IBEPADXZ
  ?egptr@?$basic_streambuf@GU?$char_traits@G@std@@@std@@IBEPAGXZ
  ?egptr@?$basic_streambuf@_WU?$char_traits@_W@std@@@std@@IBEPA_WXZ
  ?empty@?$_Yarn@D@std@@QBE_NXZ
  ?empty@locale@std@@SA?AV12@XZ
  ?encoding@codecvt_base@std@@QBEHXZ
  ?endl@std@@YAAAV?$basic_ostream@DU?$char_traits@D@std@@@1@AAV21@@Z
  ?endl@std@@YAAAV?$basic_ostream@GU?$char_traits@G@std@@@1@AAV21@@Z
  ?endl@std@@YAAAV?$basic_ostream@_WU?$char_traits@_W@std@@@1@AAV21@@Z
  ?ends@std@@YAAAV?$basic_ostream@DU?$char_traits@D@std@@@1@AAV21@@Z
  ?ends@std@@YAAAV?$basic_ostream@GU?$char_traits@G@std@@@1@AAV21@@Z
  ?ends@std@@YAAAV?$basic_ostream@_WU?$char_traits@_W@std@@@1@AAV21@@Z
  ?eof@ios_base@std@@QBE_NXZ
  ?epptr@?$basic_streambuf@DU?$char_traits@D@std@@@std@@IBEPADXZ
  ?epptr@?$basic_streambuf@GU?$char_traits@G@std@@@std@@IBEPAGXZ
  ?epptr@?$basic_streambuf@_WU?$char_traits@_W@std@@@std@@IBEPA_WXZ
  ?epsilon@?$numeric_limits@C@std@@SACXZ
  ?epsilon@?$numeric_limits@D@std@@SADXZ
  ?epsilon@?$numeric_limits@E@std@@SAEXZ
  ?epsilon@?$numeric_limits@F@std@@SAFXZ
  ?epsilon@?$numeric_limits@G@std@@SAGXZ
  ?epsilon@?$numeric_limits@H@std@@SAHXZ
  ?epsilon@?$numeric_limits@I@std@@SAIXZ
  ?epsilon@?$numeric_limits@J@std@@SAJXZ
  ?epsilon@?$numeric_limits@K@std@@SAKXZ
  ?epsilon@?$numeric_limits@M@std@@SAMXZ
  ?epsilon@?$numeric_limits@N@std@@SANXZ
  ?epsilon@?$numeric_limits@O@std@@SAOXZ
  ?epsilon@?$numeric_limits@_J@std@@SA_JXZ
  ?epsilon@?$numeric_limits@_K@std@@SA_KXZ
  ?epsilon@?$numeric_limits@_N@std@@SA_NXZ
  ?epsilon@?$numeric_limits@_W@std@@SA_WXZ
  ?exceptions@ios_base@std@@QAEXH@Z
  ?exceptions@ios_base@std@@QAEXI@Z
  ?exceptions@ios_base@std@@QBEHXZ
  ?fail@ios_base@std@@QBE_NXZ
  ?fill@?$basic_ios@DU?$char_traits@D@std@@@std@@QAEDD@Z
  ?fill@?$basic_ios@DU?$char_traits@D@std@@@std@@QBEDXZ
  ?fill@?$basic_ios@GU?$char_traits@G@std@@@std@@QAEGG@Z
  ?fill@?$basic_ios@GU?$char_traits@G@std@@@std@@QBEGXZ
  ?fill@?$basic_ios@_WU?$char_traits@_W@std@@@std@@QAE_W_W@Z
  ?fill@?$basic_ios@_WU?$char_traits@_W@std@@@std@@QBE_WXZ
  ?flags@ios_base@std@@QAEHH@Z
  ?flags@ios_base@std@@QBEHXZ
  ?flush@?$basic_ostream@DU?$char_traits@D@std@@@std@@QAEAAV12@XZ
  ?flush@?$basic_ostream@GU?$char_traits@G@std@@@std@@QAEAAV12@XZ
  ?flush@?$basic_ostream@_WU?$char_traits@_W@std@@@std@@QAEAAV12@XZ
  ?flush@std@@YAAAV?$basic_ostream@DU?$char_traits@D@std@@@1@AAV21@@Z
  ?flush@std@@YAAAV?$basic_ostream@GU?$char_traits@G@std@@@1@AAV21@@Z
  ?flush@std@@YAAAV?$basic_ostream@_WU?$char_traits@_W@std@@@1@AAV21@@Z
  ?gbump@?$basic_streambuf@DU?$char_traits@D@std@@@std@@IAEXH@Z
  ?gbump@?$basic_streambuf@GU?$char_traits@G@std@@@std@@IAEXH@Z
  ?gbump@?$basic_streambuf@_WU?$char_traits@_W@std@@@std@@IAEXH@Z
  ?gcount@?$basic_istream@DU?$char_traits@D@std@@@std@@QBE_JXZ
  ?gcount@?$basic_istream@GU?$char_traits@G@std@@@std@@QBE_JXZ
  ?gcount@?$basic_istream@_WU?$char_traits@_W@std@@@std@@QBE_JXZ
  ?generic_category@std@@YAABVerror_category@1@XZ
  ?get@?$basic_istream@DU?$char_traits@D@std@@@std@@QAEAAV12@AAD@Z
  ?get@?$basic_istream@DU?$char_traits@D@std@@@std@@QAEAAV12@AAV?$basic_streambuf@DU?$char_traits@D@std@@@2@@Z
  ?get@?$basic_istream@DU?$char_traits@D@std@@@std@@QAEAAV12@AAV?$basic_streambuf@DU?$char_traits@D@std@@@2@D@Z
  ?get@?$basic_istream@DU?$char_traits@D@std@@@std@@QAEAAV12@PAD_J@Z
  ?get@?$basic_istream@DU?$char_traits@D@std@@@std@@QAEAAV12@PAD_JD@Z
  ?get@?$basic_istream@DU?$char_traits@D@std@@@std@@QAEHXZ
  ?get@?$basic_istream@GU?$char_traits@G@std@@@std@@QAEAAV12@AAG@Z
  ?get@?$basic_istream@GU?$char_traits@G@std@@@std@@QAEAAV12@AAV?$basic_streambuf@GU?$char_traits@G@std@@@2@@Z
  ?get@?$basic_istream@GU?$char_traits@G@std@@@std@@QAEAAV12@AAV?$basic_streambuf@GU?$char_traits@G@std@@@2@G@Z
  ?get@?$basic_istream@GU?$char_traits@G@std@@@std@@QAEAAV12@PAG_J@Z
  ?get@?$basic_istream@GU?$char_traits@G@std@@@std@@QAEAAV12@PAG_JG@Z
  ?get@?$basic_istream@GU?$char_traits@G@std@@@std@@QAEGXZ
  ?get@?$basic_istream@_WU?$char_traits@_W@std@@@std@@QAEAAV12@AAV?$basic_streambuf@_WU?$char_traits@_W@std@@@2@@Z
  ?get@?$basic_istream@_WU?$char_traits@_W@std@@@std@@QAEAAV12@AAV?$basic_streambuf@_WU?$char_traits@_W@std@@@2@_W@Z
  ?get@?$basic_istream@_WU?$char_traits@_W@std@@@std@@QAEAAV12@AA_W@Z
  ?get@?$basic_istream@_WU?$char_traits@_W@std@@@std@@QAEAAV12@PA_W_J@Z
  ?get@?$basic_istream@_WU?$char_traits@_W@std@@@std@@QAEAAV12@PA_W_J_W@Z
  ?get@?$basic_istream@_WU?$char_traits@_W@std@@@std@@QAEGXZ
  ?get@?$num_get@DV?$istreambuf_iterator@DU?$char_traits@D@std@@@std@@@std@@QBE?AV?$istreambuf_iterator@DU?$char_traits@D@std@@@2@V32@0AAVios_base@2@AAHAAG@Z
  ?get@?$num_get@DV?$istreambuf_iterator@DU?$char_traits@D@std@@@std@@@std@@QBE?AV?$istreambuf_iterator@DU?$char_traits@D@std@@@2@V32@0AAVios_base@2@AAHAAI@Z
  ?get@?$num_get@DV?$istreambuf_iterator@DU?$char_traits@D@std@@@std@@@std@@QBE?AV?$istreambuf_iterator@DU?$char_traits@D@std@@@2@V32@0AAVios_base@2@AAHAAJ@Z
  ?get@?$num_get@DV?$istreambuf_iterator@DU?$char_traits@D@std@@@std@@@std@@QBE?AV?$istreambuf_iterator@DU?$char_traits@D@std@@@2@V32@0AAVios_base@2@AAHAAK@Z
  ?get@?$num_get@DV?$istreambuf_iterator@DU?$char_traits@D@std@@@std@@@std@@QBE?AV?$istreambuf_iterator@DU?$char_traits@D@std@@@2@V32@0AAVios_base@2@AAHAAM@Z
  ?get@?$num_get@DV?$istreambuf_iterator@DU?$char_traits@D@std@@@std@@@std@@QBE?AV?$istreambuf_iterator@DU?$char_traits@D@std@@@2@V32@0AAVios_base@2@AAHAAN@Z
  ?get@?$num_get@DV?$istreambuf_iterator@DU?$char_traits@D@std@@@std@@@std@@QBE?AV?$istreambuf_iterator@DU?$char_traits@D@std@@@2@V32@0AAVios_base@2@AAHAAO@Z
  ?get@?$num_get@DV?$istreambuf_iterator@DU?$char_traits@D@std@@@std@@@std@@QBE?AV?$istreambuf_iterator@DU?$char_traits@D@std@@@2@V32@0AAVios_base@2@AAHAAPAX@Z
  ?get@?$num_get@DV?$istreambuf_iterator@DU?$char_traits@D@std@@@std@@@std@@QBE?AV?$istreambuf_iterator@DU?$char_traits@D@std@@@2@V32@0AAVios_base@2@AAHAA_J@Z
  ?get@?$num_get@DV?$istreambuf_iterator@DU?$char_traits@D@std@@@std@@@std@@QBE?AV?$istreambuf_iterator@DU?$char_traits@D@std@@@2@V32@0AAVios_base@2@AAHAA_K@Z
  ?get@?$num_get@DV?$istreambuf_iterator@DU?$char_traits@D@std@@@std@@@std@@QBE?AV?$istreambuf_iterator@DU?$char_traits@D@std@@@2@V32@0AAVios_base@2@AAHAA_N@Z
  ?get@?$num_get@GV?$istreambuf_iterator@GU?$char_traits@G@std@@@std@@@std@@QBE?AV?$istreambuf_iterator@GU?$char_traits@G@std@@@2@V32@0AAVios_base@2@AAHAAG@Z
  ?get@?$num_get@GV?$istreambuf_iterator@GU?$char_traits@G@std@@@std@@@std@@QBE?AV?$istreambuf_iterator@GU?$char_traits@G@std@@@2@V32@0AAVios_base@2@AAHAAI@Z
  ?get@?$num_get@GV?$istreambuf_iterator@GU?$char_traits@G@std@@@std@@@std@@QBE?AV?$istreambuf_iterator@GU?$char_traits@G@std@@@2@V32@0AAVios_base@2@AAHAAJ@Z
  ?get@?$num_get@GV?$istreambuf_iterator@GU?$char_traits@G@std@@@std@@@std@@QBE?AV?$istreambuf_iterator@GU?$char_traits@G@std@@@2@V32@0AAVios_base@2@AAHAAK@Z
  ?get@?$num_get@GV?$istreambuf_iterator@GU?$char_traits@G@std@@@std@@@std@@QBE?AV?$istreambuf_iterator@GU?$char_traits@G@std@@@2@V32@0AAVios_base@2@AAHAAM@Z
  ?get@?$num_get@GV?$istreambuf_iterator@GU?$char_traits@G@std@@@std@@@std@@QBE?AV?$istreambuf_iterator@GU?$char_traits@G@std@@@2@V32@0AAVios_base@2@AAHAAN@Z
  ?get@?$num_get@GV?$istreambuf_iterator@GU?$char_traits@G@std@@@std@@@std@@QBE?AV?$istreambuf_iterator@GU?$char_traits@G@std@@@2@V32@0AAVios_base@2@AAHAAO@Z
  ?get@?$num_get@GV?$istreambuf_iterator@GU?$char_traits@G@std@@@std@@@std@@QBE?AV?$istreambuf_iterator@GU?$char_traits@G@std@@@2@V32@0AAVios_base@2@AAHAAPAX@Z
  ?get@?$num_get@GV?$istreambuf_iterator@GU?$char_traits@G@std@@@std@@@std@@QBE?AV?$istreambuf_iterator@GU?$char_traits@G@std@@@2@V32@0AAVios_base@2@AAHAA_J@Z
  ?get@?$num_get@GV?$istreambuf_iterator@GU?$char_traits@G@std@@@std@@@std@@QBE?AV?$istreambuf_iterator@GU?$char_traits@G@std@@@2@V32@0AAVios_base@2@AAHAA_K@Z
  ?get@?$num_get@GV?$istreambuf_iterator@GU?$char_traits@G@std@@@std@@@std@@QBE?AV?$istreambuf_iterator@GU?$char_traits@G@std@@@2@V32@0AAVios_base@2@AAHAA_N@Z
  ?get@?$num_get@_WV?$istreambuf_iterator@_WU?$char_traits@_W@std@@@std@@@std@@QBE?AV?$istreambuf_iterator@_WU?$char_traits@_W@std@@@2@V32@0AAVios_base@2@AAHAAG@Z
  ?get@?$num_get@_WV?$istreambuf_iterator@_WU?$char_traits@_W@std@@@std@@@std@@QBE?AV?$istreambuf_iterator@_WU?$char_traits@_W@std@@@2@V32@0AAVios_base@2@AAHAAI@Z
  ?get@?$num_get@_WV?$istreambuf_iterator@_WU?$char_traits@_W@std@@@std@@@std@@QBE?AV?$istreambuf_iterator@_WU?$char_traits@_W@std@@@2@V32@0AAVios_base@2@AAHAAJ@Z
  ?get@?$num_get@_WV?$istreambuf_iterator@_WU?$char_traits@_W@std@@@std@@@std@@QBE?AV?$istreambuf_iterator@_WU?$char_traits@_W@std@@@2@V32@0AAVios_base@2@AAHAAK@Z
  ?get@?$num_get@_WV?$istreambuf_iterator@_WU?$char_traits@_W@std@@@std@@@std@@QBE?AV?$istreambuf_iterator@_WU?$char_traits@_W@std@@@2@V32@0AAVios_base@2@AAHAAM@Z
  ?get@?$num_get@_WV?$istreambuf_iterator@_WU?$char_traits@_W@std@@@std@@@std@@QBE?AV?$istreambuf_iterator@_WU?$char_traits@_W@std@@@2@V32@0AAVios_base@2@AAHAAN@Z
  ?get@?$num_get@_WV?$istreambuf_iterator@_WU?$char_traits@_W@std@@@std@@@std@@QBE?AV?$istreambuf_iterator@_WU?$char_traits@_W@std@@@2@V32@0AAVios_base@2@AAHAAO@Z
  ?get@?$num_get@_WV?$istreambuf_iterator@_WU?$char_traits@_W@std@@@std@@@std@@QBE?AV?$istreambuf_iterator@_WU?$char_traits@_W@std@@@2@V32@0AAVios_base@2@AAHAAPAX@Z
  ?get@?$num_get@_WV?$istreambuf_iterator@_WU?$char_traits@_W@std@@@std@@@std@@QBE?AV?$istreambuf_iterator@_WU?$char_traits@_W@std@@@2@V32@0AAVios_base@2@AAHAA_J@Z
  ?get@?$num_get@_WV?$istreambuf_iterator@_WU?$char_traits@_W@std@@@std@@@std@@QBE?AV?$istreambuf_iterator@_WU?$char_traits@_W@std@@@2@V32@0AAVios_base@2@AAHAA_K@Z
  ?get@?$num_get@_WV?$istreambuf_iterator@_WU?$char_traits@_W@std@@@std@@@std@@QBE?AV?$istreambuf_iterator@_WU?$char_traits@_W@std@@@2@V32@0AAVios_base@2@AAHAA_N@Z
  ?get@?$time_get@DV?$istreambuf_iterator@DU?$char_traits@D@std@@@std@@@std@@QBE?AV?$istreambuf_iterator@DU?$char_traits@D@std@@@2@V32@0AAVios_base@2@AAHPAUtm@@DD@Z
  ?get@?$time_get@DV?$istreambuf_iterator@DU?$char_traits@D@std@@@std@@@std@@QBE?AV?$istreambuf_iterator@DU?$char_traits@D@std@@@2@V32@0AAVios_base@2@AAHPAUtm@@PBD4@Z
  ?get@?$time_get@GV?$istreambuf_iterator@GU?$char_traits@G@std@@@std@@@std@@QBE?AV?$istreambuf_iterator@GU?$char_traits@G@std@@@2@V32@0AAVios_base@2@AAHPAUtm@@DD@Z
  ?get@?$time_get@GV?$istreambuf_iterator@GU?$char_traits@G@std@@@std@@@std@@QBE?AV?$istreambuf_iterator@GU?$char_traits@G@std@@@2@V32@0AAVios_base@2@AAHPAUtm@@PBG4@Z
  ?get@?$time_get@_WV?$istreambuf_iterator@_WU?$char_traits@_W@std@@@std@@@std@@QBE?AV?$istreambuf_iterator@_WU?$char_traits@_W@std@@@2@V32@0AAVios_base@2@AAHPAUtm@@DD@Z
  ?get@?$time_get@_WV?$istreambuf_iterator@_WU?$char_traits@_W@std@@@std@@@std@@QBE?AV?$istreambuf_iterator@_WU?$char_traits@_W@std@@@2@V32@0AAVios_base@2@AAHPAUtm@@PB_W4@Z
  ?get_date@?$time_get@DV?$istreambuf_iterator@DU?$char_traits@D@std@@@std@@@std@@QBE?AV?$istreambuf_iterator@DU?$char_traits@D@std@@@2@V32@0AAVios_base@2@AAHPAUtm@@@Z
  ?get_date@?$time_get@GV?$istreambuf_iterator@GU?$char_traits@G@std@@@std@@@std@@QBE?AV?$istreambuf_iterator@GU?$char_traits@G@std@@@2@V32@0AAVios_base@2@AAHPAUtm@@@Z
  ?get_date@?$time_get@_WV?$istreambuf_iterator@_WU?$char_traits@_W@std@@@std@@@std@@QBE?AV?$istreambuf_iterator@_WU?$char_traits@_W@std@@@2@V32@0AAVios_base@2@AAHPAUtm@@@Z
  ?get_monthname@?$time_get@DV?$istreambuf_iterator@DU?$char_traits@D@std@@@std@@@std@@QBE?AV?$istreambuf_iterator@DU?$char_traits@D@std@@@2@V32@0AAVios_base@2@AAHPAUtm@@@Z
  ?get_monthname@?$time_get@GV?$istreambuf_iterator@GU?$char_traits@G@std@@@std@@@std@@QBE?AV?$istreambuf_iterator@GU?$char_traits@G@std@@@2@V32@0AAVios_base@2@AAHPAUtm@@@Z
  ?get_monthname@?$time_get@_WV?$istreambuf_iterator@_WU?$char_traits@_W@std@@@std@@@std@@QBE?AV?$istreambuf_iterator@_WU?$char_traits@_W@std@@@2@V32@0AAVios_base@2@AAHPAUtm@@@Z
  ?get_time@?$time_get@DV?$istreambuf_iterator@DU?$char_traits@D@std@@@std@@@std@@QBE?AV?$istreambuf_iterator@DU?$char_traits@D@std@@@2@V32@0AAVios_base@2@AAHPAUtm@@@Z
  ?get_time@?$time_get@GV?$istreambuf_iterator@GU?$char_traits@G@std@@@std@@@std@@QBE?AV?$istreambuf_iterator@GU?$char_traits@G@std@@@2@V32@0AAVios_base@2@AAHPAUtm@@@Z
  ?get_time@?$time_get@_WV?$istreambuf_iterator@_WU?$char_traits@_W@std@@@std@@@std@@QBE?AV?$istreambuf_iterator@_WU?$char_traits@_W@std@@@2@V32@0AAVios_base@2@AAHPAUtm@@@Z
  ?get_weekday@?$time_get@DV?$istreambuf_iterator@DU?$char_traits@D@std@@@std@@@std@@QBE?AV?$istreambuf_iterator@DU?$char_traits@D@std@@@2@V32@0AAVios_base@2@AAHPAUtm@@@Z
  ?get_weekday@?$time_get@GV?$istreambuf_iterator@GU?$char_traits@G@std@@@std@@@std@@QBE?AV?$istreambuf_iterator@GU?$char_traits@G@std@@@2@V32@0AAVios_base@2@AAHPAUtm@@@Z
  ?get_weekday@?$time_get@_WV?$istreambuf_iterator@_WU?$char_traits@_W@std@@@std@@@std@@QBE?AV?$istreambuf_iterator@_WU?$char_traits@_W@std@@@2@V32@0AAVios_base@2@AAHPAUtm@@@Z
  ?get_year@?$time_get@DV?$istreambuf_iterator@DU?$char_traits@D@std@@@std@@@std@@QBE?AV?$istreambuf_iterator@DU?$char_traits@D@std@@@2@V32@0AAVios_base@2@AAHPAUtm@@@Z
  ?get_year@?$time_get@GV?$istreambuf_iterator@GU?$char_traits@G@std@@@std@@@std@@QBE?AV?$istreambuf_iterator@GU?$char_traits@G@std@@@2@V32@0AAVios_base@2@AAHPAUtm@@@Z
  ?get_year@?$time_get@_WV?$istreambuf_iterator@_WU?$char_traits@_W@std@@@std@@@std@@QBE?AV?$istreambuf_iterator@_WU?$char_traits@_W@std@@@2@V32@0AAVios_base@2@AAHPAUtm@@@Z
  ?getline@?$basic_istream@DU?$char_traits@D@std@@@std@@QAEAAV12@PAD_J@Z
  ?getline@?$basic_istream@DU?$char_traits@D@std@@@std@@QAEAAV12@PAD_JD@Z
  ?getline@?$basic_istream@GU?$char_traits@G@std@@@std@@QAEAAV12@PAG_J@Z
  ?getline@?$basic_istream@GU?$char_traits@G@std@@@std@@QAEAAV12@PAG_JG@Z
  ?getline@?$basic_istream@_WU?$char_traits@_W@std@@@std@@QAEAAV12@PA_W_J@Z
  ?getline@?$basic_istream@_WU?$char_traits@_W@std@@@std@@QAEAAV12@PA_W_J_W@Z
  ?getloc@?$basic_streambuf@DU?$char_traits@D@std@@@std@@QBE?AVlocale@2@XZ
  ?getloc@?$basic_streambuf@GU?$char_traits@G@std@@@std@@QBE?AVlocale@2@XZ
  ?getloc@?$basic_streambuf@_WU?$char_traits@_W@std@@@std@@QBE?AVlocale@2@XZ
  ?getloc@ios_base@std@@QBE?AVlocale@2@XZ
  ?global@locale@std@@SA?AV12@ABV12@@Z
  ?good@ios_base@std@@QBE_NXZ
  ?gptr@?$basic_streambuf@DU?$char_traits@D@std@@@std@@IBEPADXZ
  ?gptr@?$basic_streambuf@GU?$char_traits@G@std@@@std@@IBEPAGXZ
  ?gptr@?$basic_streambuf@_WU?$char_traits@_W@std@@@std@@IBEPA_WXZ
  ?has_denorm@_Num_base@std@@2W4float_denorm_style@2@B
  ?has_denorm@_Num_float_base@std@@2W4float_denorm_style@2@B
  ?has_denorm_loss@_Num_base@std@@2_NB
  ?has_denorm_loss@_Num_float_base@std@@2_NB
  ?has_infinity@_Num_base@std@@2_NB
  ?has_infinity@_Num_float_base@std@@2_NB
  ?has_quiet_NaN@_Num_base@std@@2_NB
  ?has_quiet_NaN@_Num_float_base@std@@2_NB
  ?has_signaling_NaN@_Num_base@std@@2_NB
  ?has_signaling_NaN@_Num_float_base@std@@2_NB
  ?id@?$codecvt@DDH@std@@2V0locale@2@A
  ?id@?$codecvt@GDH@std@@2V0locale@2@A
  ?id@?$codecvt@_WDH@std@@2V0locale@2@A
  ?id@?$collate@D@std@@2V0locale@2@A
  ?id@?$collate@G@std@@2V0locale@2@A
  ?id@?$collate@_W@std@@2V0locale@2@A
  ?id@?$ctype@D@std@@2V0locale@2@A
  ?id@?$ctype@G@std@@2V0locale@2@A
  ?id@?$ctype@_W@std@@2V0locale@2@A
  ?id@?$messages@D@std@@2V0locale@2@A
  ?id@?$messages@G@std@@2V0locale@2@A
  ?id@?$messages@_W@std@@2V0locale@2@A
  ?id@?$money_get@DV?$istreambuf_iterator@DU?$char_traits@D@std@@@std@@@std@@2V0locale@2@A
  ?id@?$money_get@GV?$istreambuf_iterator@GU?$char_traits@G@std@@@std@@@std@@2V0locale@2@A
  ?id@?$money_get@_WV?$istreambuf_iterator@_WU?$char_traits@_W@std@@@std@@@std@@2V0locale@2@A
  ?id@?$money_put@DV?$ostreambuf_iterator@DU?$char_traits@D@std@@@std@@@std@@2V0locale@2@A
  ?id@?$money_put@GV?$ostreambuf_iterator@GU?$char_traits@G@std@@@std@@@std@@2V0locale@2@A
  ?id@?$money_put@_WV?$ostreambuf_iterator@_WU?$char_traits@_W@std@@@std@@@std@@2V0locale@2@A
  ?id@?$moneypunct@D$00@std@@2V0locale@2@A
  ?id@?$moneypunct@D$0A@@std@@2V0locale@2@A
  ?id@?$moneypunct@G$00@std@@2V0locale@2@A
  ?id@?$moneypunct@G$0A@@std@@2V0locale@2@A
  ?id@?$moneypunct@_W$00@std@@2V0locale@2@A
  ?id@?$moneypunct@_W$0A@@std@@2V0locale@2@A
  ?id@?$num_get@DV?$istreambuf_iterator@DU?$char_traits@D@std@@@std@@@std@@2V0locale@2@A
  ?id@?$num_get@GV?$istreambuf_iterator@GU?$char_traits@G@std@@@std@@@std@@2V0locale@2@A
  ?id@?$num_get@_WV?$istreambuf_iterator@_WU?$char_traits@_W@std@@@std@@@std@@2V0locale@2@A
  ?id@?$num_put@DV?$ostreambuf_iterator@DU?$char_traits@D@std@@@std@@@std@@2V0locale@2@A
  ?id@?$num_put@GV?$ostreambuf_iterator@GU?$char_traits@G@std@@@std@@@std@@2V0locale@2@A
  ?id@?$num_put@_WV?$ostreambuf_iterator@_WU?$char_traits@_W@std@@@std@@@std@@2V0locale@2@A
  ?id@?$numpunct@D@std@@2V0locale@2@A
  ?id@?$numpunct@G@std@@2V0locale@2@A
  ?id@?$numpunct@_W@std@@2V0locale@2@A
  ?id@?$time_get@DV?$istreambuf_iterator@DU?$char_traits@D@std@@@std@@@std@@2V0locale@2@A
  ?id@?$time_get@GV?$istreambuf_iterator@GU?$char_traits@G@std@@@std@@@std@@2V0locale@2@A
  ?id@?$time_get@_WV?$istreambuf_iterator@_WU?$char_traits@_W@std@@@std@@@std@@2V0locale@2@A
  ?id@?$time_put@DV?$ostreambuf_iterator@DU?$char_traits@D@std@@@std@@@std@@2V0locale@2@A
  ?id@?$time_put@GV?$ostreambuf_iterator@GU?$char_traits@G@std@@@std@@@std@@2V0locale@2@A
  ?id@?$time_put@_WV?$ostreambuf_iterator@_WU?$char_traits@_W@std@@@std@@@std@@2V0locale@2@A
  ?ignore@?$basic_istream@DU?$char_traits@D@std@@@std@@QAEAAV12@_JH@Z
  ?ignore@?$basic_istream@GU?$char_traits@G@std@@@std@@QAEAAV12@_JG@Z
  ?ignore@?$basic_istream@_WU?$char_traits@_W@std@@@std@@QAEAAV12@_JG@Z
  ?imbue@?$basic_ios@DU?$char_traits@D@std@@@std@@QAE?AVlocale@2@ABV32@@Z
  ?imbue@?$basic_ios@GU?$char_traits@G@std@@@std@@QAE?AVlocale@2@ABV32@@Z
  ?imbue@?$basic_ios@_WU?$char_traits@_W@std@@@std@@QAE?AVlocale@2@ABV32@@Z
  ?imbue@?$basic_streambuf@DU?$char_traits@D@std@@@std@@MAEXABVlocale@2@@Z
  ?imbue@?$basic_streambuf@GU?$char_traits@G@std@@@std@@MAEXABVlocale@2@@Z
  ?imbue@?$basic_streambuf@_WU?$char_traits@_W@std@@@std@@MAEXABVlocale@2@@Z
  ?imbue@ios_base@std@@QAE?AVlocale@2@ABV32@@Z
  ?in@?$codecvt@DDH@std@@QBEHAAHPBD1AAPBDPAD3AAPAD@Z
  ?in@?$codecvt@GDH@std@@QBEHAAHPBD1AAPBDPAG3AAPAG@Z
  ?in@?$codecvt@_WDH@std@@QBEHAAHPBD1AAPBDPA_W3AAPA_W@Z
  ?in_avail@?$basic_streambuf@DU?$char_traits@D@std@@@std@@QAE_JXZ
  ?in_avail@?$basic_streambuf@GU?$char_traits@G@std@@@std@@QAE_JXZ
  ?in_avail@?$basic_streambuf@_WU?$char_traits@_W@std@@@std@@QAE_JXZ
  ?infinity@?$numeric_limits@C@std@@SACXZ
  ?infinity@?$numeric_limits@D@std@@SADXZ
  ?infinity@?$numeric_limits@E@std@@SAEXZ
  ?infinity@?$numeric_limits@F@std@@SAFXZ
  ?infinity@?$numeric_limits@G@std@@SAGXZ
  ?infinity@?$numeric_limits@H@std@@SAHXZ
  ?infinity@?$numeric_limits@I@std@@SAIXZ
  ?infinity@?$numeric_limits@J@std@@SAJXZ
  ?infinity@?$numeric_limits@K@std@@SAKXZ
  ?infinity@?$numeric_limits@M@std@@SAMXZ
  ?infinity@?$numeric_limits@N@std@@SANXZ
  ?infinity@?$numeric_limits@O@std@@SAOXZ
  ?infinity@?$numeric_limits@_J@std@@SA_JXZ
  ?infinity@?$numeric_limits@_K@std@@SA_KXZ
  ?infinity@?$numeric_limits@_N@std@@SA_NXZ
  ?infinity@?$numeric_limits@_W@std@@SA_WXZ
  ?init@?$basic_ios@DU?$char_traits@D@std@@@std@@IAEXPAV?$basic_streambuf@DU?$char_traits@D@std@@@2@_N@Z
  ?init@?$basic_ios@GU?$char_traits@G@std@@@std@@IAEXPAV?$basic_streambuf@GU?$char_traits@G@std@@@2@_N@Z
  ?init@?$basic_ios@_WU?$char_traits@_W@std@@@std@@IAEXPAV?$basic_streambuf@_WU?$char_traits@_W@std@@@2@_N@Z
  ?intl@?$moneypunct@D$00@std@@2_NB
  ?intl@?$moneypunct@D$0A@@std@@2_NB
  ?intl@?$moneypunct@G$00@std@@2_NB
  ?intl@?$moneypunct@G$0A@@std@@2_NB
  ?intl@?$moneypunct@_W$00@std@@2_NB
  ?intl@?$moneypunct@_W$0A@@std@@2_NB
  ?iostream_category@std@@YAABVerror_category@1@XZ
  ?ipfx@?$basic_istream@DU?$char_traits@D@std@@@std@@QAE_N_N@Z
  ?ipfx@?$basic_istream@GU?$char_traits@G@std@@@std@@QAE_N_N@Z
  ?ipfx@?$basic_istream@_WU?$char_traits@_W@std@@@std@@QAE_N_N@Z
  ?is@?$ctype@D@std@@QBEPBDPBD0PAF@Z
  ?is@?$ctype@D@std@@QBE_NFD@Z
  ?is@?$ctype@G@std@@QBEPBGPBG0PAF@Z
  ?is@?$ctype@G@std@@QBE_NFG@Z
  ?is@?$ctype@_W@std@@QBEPB_WPB_W0PAF@Z
  ?is@?$ctype@_W@std@@QBE_NF_W@Z
  ?is_bounded@_Num_base@std@@2_NB
  ?is_bounded@_Num_float_base@std@@2_NB
  ?is_bounded@_Num_int_base@std@@2_NB
  ?is_current_task_group_canceling@Concurrency@@YA_NXZ
  ?is_exact@_Num_base@std@@2_NB
  ?is_exact@_Num_float_base@std@@2_NB
  ?is_exact@_Num_int_base@std@@2_NB
  ?is_iec559@_Num_base@std@@2_NB
  ?is_iec559@_Num_float_base@std@@2_NB
  ?is_integer@_Num_base@std@@2_NB
  ?is_integer@_Num_float_base@std@@2_NB
  ?is_integer@_Num_int_base@std@@2_NB
  ?is_modulo@?$numeric_limits@_N@std@@2_NB
  ?is_modulo@_Num_base@std@@2_NB
  ?is_modulo@_Num_float_base@std@@2_NB
  ?is_modulo@_Num_int_base@std@@2_NB
  ?is_signed@?$numeric_limits@C@std@@2_NB
  ?is_signed@?$numeric_limits@D@std@@2_NB
  ?is_signed@?$numeric_limits@E@std@@2_NB
  ?is_signed@?$numeric_limits@F@std@@2_NB
  ?is_signed@?$numeric_limits@G@std@@2_NB
  ?is_signed@?$numeric_limits@H@std@@2_NB
  ?is_signed@?$numeric_limits@I@std@@2_NB
  ?is_signed@?$numeric_limits@J@std@@2_NB
  ?is_signed@?$numeric_limits@K@std@@2_NB
  ?is_signed@?$numeric_limits@_J@std@@2_NB
  ?is_signed@?$numeric_limits@_K@std@@2_NB
  ?is_signed@?$numeric_limits@_N@std@@2_NB
  ?is_signed@?$numeric_limits@_W@std@@2_NB
  ?is_signed@_Num_base@std@@2_NB
  ?is_signed@_Num_float_base@std@@2_NB
  ?is_specialized@_Num_base@std@@2_NB
  ?is_specialized@_Num_float_base@std@@2_NB
  ?is_specialized@_Num_int_base@std@@2_NB
  ?isfx@?$basic_istream@DU?$char_traits@D@std@@@std@@QAEXXZ
  ?isfx@?$basic_istream@GU?$char_traits@G@std@@@std@@QAEXXZ
  ?isfx@?$basic_istream@_WU?$char_traits@_W@std@@@std@@QAEXXZ
  ?iword@ios_base@std@@QAEAAJH@Z
  ?length@?$codecvt@DDH@std@@QBEHABHPBD1I@Z
  ?length@?$codecvt@GDH@std@@QBEHABHPBD1I@Z
  ?length@?$codecvt@_WDH@std@@QBEHABHPBD1I@Z
  ?lowest@?$numeric_limits@C@std@@SACXZ
  ?lowest@?$numeric_limits@D@std@@SADXZ
  ?lowest@?$numeric_limits@E@std@@SAEXZ
  ?lowest@?$numeric_limits@F@std@@SAFXZ
  ?lowest@?$numeric_limits@G@std@@SAGXZ
  ?lowest@?$numeric_limits@H@std@@SAHXZ
  ?lowest@?$numeric_limits@I@std@@SAIXZ
  ?lowest@?$numeric_limits@J@std@@SAJXZ
  ?lowest@?$numeric_limits@K@std@@SAKXZ
  ?lowest@?$numeric_limits@M@std@@SAMXZ
  ?lowest@?$numeric_limits@N@std@@SANXZ
  ?lowest@?$numeric_limits@O@std@@SAOXZ
  ?lowest@?$numeric_limits@_J@std@@SA_JXZ
  ?lowest@?$numeric_limits@_K@std@@SA_KXZ
  ?lowest@?$numeric_limits@_N@std@@SA_NXZ
  ?lowest@?$numeric_limits@_W@std@@SA_WXZ
  ?max@?$numeric_limits@C@std@@SACXZ
  ?max@?$numeric_limits@D@std@@SADXZ
  ?max@?$numeric_limits@E@std@@SAEXZ
  ?max@?$numeric_limits@F@std@@SAFXZ
  ?max@?$numeric_limits@G@std@@SAGXZ
  ?max@?$numeric_limits@H@std@@SAHXZ
  ?max@?$numeric_limits@I@std@@SAIXZ
  ?max@?$numeric_limits@J@std@@SAJXZ
  ?max@?$numeric_limits@K@std@@SAKXZ
  ?max@?$numeric_limits@M@std@@SAMXZ
  ?max@?$numeric_limits@N@std@@SANXZ
  ?max@?$numeric_limits@O@std@@SAOXZ
  ?max@?$numeric_limits@_J@std@@SA_JXZ
  ?max@?$numeric_limits@_K@std@@SA_KXZ
  ?max@?$numeric_limits@_N@std@@SA_NXZ
  ?max@?$numeric_limits@_W@std@@SA_WXZ
  ?max_digits10@?$numeric_limits@C@std@@2HB
  ?max_digits10@?$numeric_limits@D@std@@2HB
  ?max_digits10@?$numeric_limits@E@std@@2HB
  ?max_digits10@?$numeric_limits@F@std@@2HB
  ?max_digits10@?$numeric_limits@G@std@@2HB
  ?max_digits10@?$numeric_limits@H@std@@2HB
  ?max_digits10@?$numeric_limits@I@std@@2HB
  ?max_digits10@?$numeric_limits@J@std@@2HB
  ?max_digits10@?$numeric_limits@K@std@@2HB
  ?max_digits10@?$numeric_limits@M@std@@2HB
  ?max_digits10@?$numeric_limits@N@std@@2HB
  ?max_digits10@?$numeric_limits@O@std@@2HB
  ?max_digits10@?$numeric_limits@_J@std@@2HB
  ?max_digits10@?$numeric_limits@_K@std@@2HB
  ?max_digits10@?$numeric_limits@_N@std@@2HB
  ?max_digits10@?$numeric_limits@_W@std@@2HB
  ?max_digits10@_Num_base@std@@2HB
  ?max_exponent10@?$numeric_limits@M@std@@2HB
  ?max_exponent10@?$numeric_limits@N@std@@2HB
  ?max_exponent10@?$numeric_limits@O@std@@2HB
  ?max_exponent10@_Num_base@std@@2HB
  ?max_exponent@?$numeric_limits@M@std@@2HB
  ?max_exponent@?$numeric_limits@N@std@@2HB
  ?max_exponent@?$numeric_limits@O@std@@2HB
  ?max_exponent@_Num_base@std@@2HB
  ?max_length@codecvt_base@std@@QBEHXZ
  ?min@?$numeric_limits@C@std@@SACXZ
  ?min@?$numeric_limits@D@std@@SADXZ
  ?min@?$numeric_limits@E@std@@SAEXZ
  ?min@?$numeric_limits@F@std@@SAFXZ
  ?min@?$numeric_limits@G@std@@SAGXZ
  ?min@?$numeric_limits@H@std@@SAHXZ
  ?min@?$numeric_limits@I@std@@SAIXZ
  ?min@?$numeric_limits@J@std@@SAJXZ
  ?min@?$numeric_limits@K@std@@SAKXZ
  ?min@?$numeric_limits@M@std@@SAMXZ
  ?min@?$numeric_limits@N@std@@SANXZ
  ?min@?$numeric_limits@O@std@@SAOXZ
  ?min@?$numeric_limits@_J@std@@SA_JXZ
  ?min@?$numeric_limits@_K@std@@SA_KXZ
  ?min@?$numeric_limits@_N@std@@SA_NXZ
  ?min@?$numeric_limits@_W@std@@SA_WXZ
  ?min_exponent10@?$numeric_limits@M@std@@2HB
  ?min_exponent10@?$numeric_limits@N@std@@2HB
  ?min_exponent10@?$numeric_limits@O@std@@2HB
  ?min_exponent10@_Num_base@std@@2HB
  ?min_exponent@?$numeric_limits@M@std@@2HB
  ?min_exponent@?$numeric_limits@N@std@@2HB
  ?min_exponent@?$numeric_limits@O@std@@2HB
  ?min_exponent@_Num_base@std@@2HB
  ?move@?$basic_ios@DU?$char_traits@D@std@@@std@@QAEX$$QAV12@@Z
  ?move@?$basic_ios@GU?$char_traits@G@std@@@std@@QAEX$$QAV12@@Z
  ?move@?$basic_ios@_WU?$char_traits@_W@std@@@std@@QAEX$$QAV12@@Z
  ?narrow@?$basic_ios@DU?$char_traits@D@std@@@std@@QBEDDD@Z
  ?narrow@?$basic_ios@GU?$char_traits@G@std@@@std@@QBEDGD@Z
  ?narrow@?$basic_ios@_WU?$char_traits@_W@std@@@std@@QBED_WD@Z
  ?narrow@?$ctype@D@std@@QBEDDD@Z
  ?narrow@?$ctype@D@std@@QBEPBDPBD0DPAD@Z
  ?narrow@?$ctype@G@std@@QBEDGD@Z
  ?narrow@?$ctype@G@std@@QBEPBGPBG0DPAD@Z
  ?narrow@?$ctype@_W@std@@QBED_WD@Z
  ?narrow@?$ctype@_W@std@@QBEPB_WPB_W0DPAD@Z
  ?opfx@?$basic_ostream@DU?$char_traits@D@std@@@std@@QAE_NXZ
  ?opfx@?$basic_ostream@GU?$char_traits@G@std@@@std@@QAE_NXZ
  ?opfx@?$basic_ostream@_WU?$char_traits@_W@std@@@std@@QAE_NXZ
  ?osfx@?$basic_ostream@DU?$char_traits@D@std@@@std@@QAEXXZ
  ?osfx@?$basic_ostream@GU?$char_traits@G@std@@@std@@QAEXXZ
  ?osfx@?$basic_ostream@_WU?$char_traits@_W@std@@@std@@QAEXXZ
  ?out@?$codecvt@DDH@std@@QBEHAAHPBD1AAPBDPAD3AAPAD@Z
  ?out@?$codecvt@GDH@std@@QBEHAAHPBG1AAPBGPAD3AAPAD@Z
  ?out@?$codecvt@_WDH@std@@QBEHAAHPB_W1AAPB_WPAD3AAPAD@Z
  ?overflow@?$basic_streambuf@DU?$char_traits@D@std@@@std@@MAEHH@Z
  ?overflow@?$basic_streambuf@GU?$char_traits@G@std@@@std@@MAEGG@Z
  ?overflow@?$basic_streambuf@_WU?$char_traits@_W@std@@@std@@MAEGG@Z
  ?pbackfail@?$basic_streambuf@DU?$char_traits@D@std@@@std@@MAEHH@Z
  ?pbackfail@?$basic_streambuf@GU?$char_traits@G@std@@@std@@MAEGG@Z
  ?pbackfail@?$basic_streambuf@_WU?$char_traits@_W@std@@@std@@MAEGG@Z
  ?pbase@?$basic_streambuf@DU?$char_traits@D@std@@@std@@IBEPADXZ
  ?pbase@?$basic_streambuf@GU?$char_traits@G@std@@@std@@IBEPAGXZ
  ?pbase@?$basic_streambuf@_WU?$char_traits@_W@std@@@std@@IBEPA_WXZ
  ?pbump@?$basic_streambuf@DU?$char_traits@D@std@@@std@@IAEXH@Z
  ?pbump@?$basic_streambuf@GU?$char_traits@G@std@@@std@@IAEXH@Z
  ?pbump@?$basic_streambuf@_WU?$char_traits@_W@std@@@std@@IAEXH@Z
  ?peek@?$basic_istream@DU?$char_traits@D@std@@@std@@QAEHXZ
  ?peek@?$basic_istream@GU?$char_traits@G@std@@@std@@QAEGXZ
  ?peek@?$basic_istream@_WU?$char_traits@_W@std@@@std@@QAEGXZ
  ?pptr@?$basic_streambuf@DU?$char_traits@D@std@@@std@@IBEPADXZ
  ?pptr@?$basic_streambuf@GU?$char_traits@G@std@@@std@@IBEPAGXZ
  ?pptr@?$basic_streambuf@_WU?$char_traits@_W@std@@@std@@IBEPA_WXZ
  ?precision@ios_base@std@@QAE_J_J@Z
  ?precision@ios_base@std@@QBE_JXZ
  ?pubimbue@?$basic_streambuf@DU?$char_traits@D@std@@@std@@QAE?AVlocale@2@ABV32@@Z
  ?pubimbue@?$basic_streambuf@GU?$char_traits@G@std@@@std@@QAE?AVlocale@2@ABV32@@Z
  ?pubimbue@?$basic_streambuf@_WU?$char_traits@_W@std@@@std@@QAE?AVlocale@2@ABV32@@Z
  ?pubseekoff@?$basic_streambuf@DU?$char_traits@D@std@@@std@@QAE?AV?$fpos@H@2@_JHH@Z
  ?pubseekoff@?$basic_streambuf@DU?$char_traits@D@std@@@std@@QAE?AV?$fpos@H@2@_JII@Z
  ?pubseekoff@?$basic_streambuf@GU?$char_traits@G@std@@@std@@QAE?AV?$fpos@H@2@_JHH@Z
  ?pubseekoff@?$basic_streambuf@GU?$char_traits@G@std@@@std@@QAE?AV?$fpos@H@2@_JII@Z
  ?pubseekoff@?$basic_streambuf@_WU?$char_traits@_W@std@@@std@@QAE?AV?$fpos@H@2@_JHH@Z
  ?pubseekoff@?$basic_streambuf@_WU?$char_traits@_W@std@@@std@@QAE?AV?$fpos@H@2@_JII@Z
  ?pubseekpos@?$basic_streambuf@DU?$char_traits@D@std@@@std@@QAE?AV?$fpos@H@2@V32@H@Z
  ?pubseekpos@?$basic_streambuf@DU?$char_traits@D@std@@@std@@QAE?AV?$fpos@H@2@V32@I@Z
  ?pubseekpos@?$basic_streambuf@GU?$char_traits@G@std@@@std@@QAE?AV?$fpos@H@2@V32@H@Z
  ?pubseekpos@?$basic_streambuf@GU?$char_traits@G@std@@@std@@QAE?AV?$fpos@H@2@V32@I@Z
  ?pubseekpos@?$basic_streambuf@_WU?$char_traits@_W@std@@@std@@QAE?AV?$fpos@H@2@V32@H@Z
  ?pubseekpos@?$basic_streambuf@_WU?$char_traits@_W@std@@@std@@QAE?AV?$fpos@H@2@V32@I@Z
  ?pubsetbuf@?$basic_streambuf@DU?$char_traits@D@std@@@std@@QAEPAV12@PAD_J@Z
  ?pubsetbuf@?$basic_streambuf@GU?$char_traits@G@std@@@std@@QAEPAV12@PAG_J@Z
  ?pubsetbuf@?$basic_streambuf@_WU?$char_traits@_W@std@@@std@@QAEPAV12@PA_W_J@Z
  ?pubsync@?$basic_streambuf@DU?$char_traits@D@std@@@std@@QAEHXZ
  ?pubsync@?$basic_streambuf@GU?$char_traits@G@std@@@std@@QAEHXZ
  ?pubsync@?$basic_streambuf@_WU?$char_traits@_W@std@@@std@@QAEHXZ
  ?put@?$basic_ostream@DU?$char_traits@D@std@@@std@@QAEAAV12@D@Z
  ?put@?$basic_ostream@GU?$char_traits@G@std@@@std@@QAEAAV12@G@Z
  ?put@?$basic_ostream@_WU?$char_traits@_W@std@@@std@@QAEAAV12@_W@Z
  ?put@?$num_put@DV?$ostreambuf_iterator@DU?$char_traits@D@std@@@std@@@std@@QBE?AV?$ostreambuf_iterator@DU?$char_traits@D@std@@@2@V32@AAVios_base@2@DJ@Z
  ?put@?$num_put@DV?$ostreambuf_iterator@DU?$char_traits@D@std@@@std@@@std@@QBE?AV?$ostreambuf_iterator@DU?$char_traits@D@std@@@2@V32@AAVios_base@2@DK@Z
  ?put@?$num_put@DV?$ostreambuf_iterator@DU?$char_traits@D@std@@@std@@@std@@QBE?AV?$ostreambuf_iterator@DU?$char_traits@D@std@@@2@V32@AAVios_base@2@DN@Z
  ?put@?$num_put@DV?$ostreambuf_iterator@DU?$char_traits@D@std@@@std@@@std@@QBE?AV?$ostreambuf_iterator@DU?$char_traits@D@std@@@2@V32@AAVios_base@2@DO@Z
  ?put@?$num_put@DV?$ostreambuf_iterator@DU?$char_traits@D@std@@@std@@@std@@QBE?AV?$ostreambuf_iterator@DU?$char_traits@D@std@@@2@V32@AAVios_base@2@DPBX@Z
  ?put@?$num_put@DV?$ostreambuf_iterator@DU?$char_traits@D@std@@@std@@@std@@QBE?AV?$ostreambuf_iterator@DU?$char_traits@D@std@@@2@V32@AAVios_base@2@D_J@Z
  ?put@?$num_put@DV?$ostreambuf_iterator@DU?$char_traits@D@std@@@std@@@std@@QBE?AV?$ostreambuf_iterator@DU?$char_traits@D@std@@@2@V32@AAVios_base@2@D_K@Z
  ?put@?$num_put@DV?$ostreambuf_iterator@DU?$char_traits@D@std@@@std@@@std@@QBE?AV?$ostreambuf_iterator@DU?$char_traits@D@std@@@2@V32@AAVios_base@2@D_N@Z
  ?put@?$num_put@GV?$ostreambuf_iterator@GU?$char_traits@G@std@@@std@@@std@@QBE?AV?$ostreambuf_iterator@GU?$char_traits@G@std@@@2@V32@AAVios_base@2@GJ@Z
  ?put@?$num_put@GV?$ostreambuf_iterator@GU?$char_traits@G@std@@@std@@@std@@QBE?AV?$ostreambuf_iterator@GU?$char_traits@G@std@@@2@V32@AAVios_base@2@GK@Z
  ?put@?$num_put@GV?$ostreambuf_iterator@GU?$char_traits@G@std@@@std@@@std@@QBE?AV?$ostreambuf_iterator@GU?$char_traits@G@std@@@2@V32@AAVios_base@2@GN@Z
  ?put@?$num_put@GV?$ostreambuf_iterator@GU?$char_traits@G@std@@@std@@@std@@QBE?AV?$ostreambuf_iterator@GU?$char_traits@G@std@@@2@V32@AAVios_base@2@GO@Z
  ?put@?$num_put@GV?$ostreambuf_iterator@GU?$char_traits@G@std@@@std@@@std@@QBE?AV?$ostreambuf_iterator@GU?$char_traits@G@std@@@2@V32@AAVios_base@2@GPBX@Z
  ?put@?$num_put@GV?$ostreambuf_iterator@GU?$char_traits@G@std@@@std@@@std@@QBE?AV?$ostreambuf_iterator@GU?$char_traits@G@std@@@2@V32@AAVios_base@2@G_J@Z
  ?put@?$num_put@GV?$ostreambuf_iterator@GU?$char_traits@G@std@@@std@@@std@@QBE?AV?$ostreambuf_iterator@GU?$char_traits@G@std@@@2@V32@AAVios_base@2@G_K@Z
  ?put@?$num_put@GV?$ostreambuf_iterator@GU?$char_traits@G@std@@@std@@@std@@QBE?AV?$ostreambuf_iterator@GU?$char_traits@G@std@@@2@V32@AAVios_base@2@G_N@Z
  ?put@?$num_put@_WV?$ostreambuf_iterator@_WU?$char_traits@_W@std@@@std@@@std@@QBE?AV?$ostreambuf_iterator@_WU?$char_traits@_W@std@@@2@V32@AAVios_base@2@_WJ@Z
  ?put@?$num_put@_WV?$ostreambuf_iterator@_WU?$char_traits@_W@std@@@std@@@std@@QBE?AV?$ostreambuf_iterator@_WU?$char_traits@_W@std@@@2@V32@AAVios_base@2@_WK@Z
  ?put@?$num_put@_WV?$ostreambuf_iterator@_WU?$char_traits@_W@std@@@std@@@std@@QBE?AV?$ostreambuf_iterator@_WU?$char_traits@_W@std@@@2@V32@AAVios_base@2@_WN@Z
  ?put@?$num_put@_WV?$ostreambuf_iterator@_WU?$char_traits@_W@std@@@std@@@std@@QBE?AV?$ostreambuf_iterator@_WU?$char_traits@_W@std@@@2@V32@AAVios_base@2@_WO@Z
  ?put@?$num_put@_WV?$ostreambuf_iterator@_WU?$char_traits@_W@std@@@std@@@std@@QBE?AV?$ostreambuf_iterator@_WU?$char_traits@_W@std@@@2@V32@AAVios_base@2@_WPBX@Z
  ?put@?$num_put@_WV?$ostreambuf_iterator@_WU?$char_traits@_W@std@@@std@@@std@@QBE?AV?$ostreambuf_iterator@_WU?$char_traits@_W@std@@@2@V32@AAVios_base@2@_W_J@Z
  ?put@?$num_put@_WV?$ostreambuf_iterator@_WU?$char_traits@_W@std@@@std@@@std@@QBE?AV?$ostreambuf_iterator@_WU?$char_traits@_W@std@@@2@V32@AAVios_base@2@_W_K@Z
  ?put@?$num_put@_WV?$ostreambuf_iterator@_WU?$char_traits@_W@std@@@std@@@std@@QBE?AV?$ostreambuf_iterator@_WU?$char_traits@_W@std@@@2@V32@AAVios_base@2@_W_N@Z
  ?put@?$time_put@DV?$ostreambuf_iterator@DU?$char_traits@D@std@@@std@@@std@@QBE?AV?$ostreambuf_iterator@DU?$char_traits@D@std@@@2@V32@AAVios_base@2@DPBUtm@@DD@Z
  ?put@?$time_put@DV?$ostreambuf_iterator@DU?$char_traits@D@std@@@std@@@std@@QBE?AV?$ostreambuf_iterator@DU?$char_traits@D@std@@@2@V32@AAVios_base@2@DPBUtm@@PBD3@Z
  ?put@?$time_put@GV?$ostreambuf_iterator@GU?$char_traits@G@std@@@std@@@std@@QBE?AV?$ostreambuf_iterator@GU?$char_traits@G@std@@@2@V32@AAVios_base@2@GPBUtm@@DD@Z
  ?put@?$time_put@GV?$ostreambuf_iterator@GU?$char_traits@G@std@@@std@@@std@@QBE?AV?$ostreambuf_iterator@GU?$char_traits@G@std@@@2@V32@AAVios_base@2@GPBUtm@@PBG3@Z
  ?put@?$time_put@_WV?$ostreambuf_iterator@_WU?$char_traits@_W@std@@@std@@@std@@QBE?AV?$ostreambuf_iterator@_WU?$char_traits@_W@std@@@2@V32@AAVios_base@2@_WPBUtm@@DD@Z
  ?put@?$time_put@_WV?$ostreambuf_iterator@_WU?$char_traits@_W@std@@@std@@@std@@QBE?AV?$ostreambuf_iterator@_WU?$char_traits@_W@std@@@2@V32@AAVios_base@2@_WPBUtm@@PB_W4@Z
  ?putback@?$basic_istream@DU?$char_traits@D@std@@@std@@QAEAAV12@D@Z
  ?putback@?$basic_istream@GU?$char_traits@G@std@@@std@@QAEAAV12@G@Z
  ?putback@?$basic_istream@_WU?$char_traits@_W@std@@@std@@QAEAAV12@_W@Z
  ?pword@ios_base@std@@QAEAAPAXH@Z
  ?quiet_NaN@?$numeric_limits@C@std@@SACXZ
  ?quiet_NaN@?$numeric_limits@D@std@@SADXZ
  ?quiet_NaN@?$numeric_limits@E@std@@SAEXZ
  ?quiet_NaN@?$numeric_limits@F@std@@SAFXZ
  ?quiet_NaN@?$numeric_limits@G@std@@SAGXZ
  ?quiet_NaN@?$numeric_limits@H@std@@SAHXZ
  ?quiet_NaN@?$numeric_limits@I@std@@SAIXZ
  ?quiet_NaN@?$numeric_limits@J@std@@SAJXZ
  ?quiet_NaN@?$numeric_limits@K@std@@SAKXZ
  ?quiet_NaN@?$numeric_limits@M@std@@SAMXZ
  ?quiet_NaN@?$numeric_limits@N@std@@SANXZ
  ?quiet_NaN@?$numeric_limits@O@std@@SAOXZ
  ?quiet_NaN@?$numeric_limits@_J@std@@SA_JXZ
  ?quiet_NaN@?$numeric_limits@_K@std@@SA_KXZ
  ?quiet_NaN@?$numeric_limits@_N@std@@SA_NXZ
  ?quiet_NaN@?$numeric_limits@_W@std@@SA_WXZ
  ?radix@_Num_base@std@@2HB
  ?radix@_Num_float_base@std@@2HB
  ?radix@_Num_int_base@std@@2HB
  ?rdbuf@?$basic_ios@DU?$char_traits@D@std@@@std@@QAEPAV?$basic_streambuf@DU?$char_traits@D@std@@@2@PAV32@@Z
  ?rdbuf@?$basic_ios@DU?$char_traits@D@std@@@std@@QBEPAV?$basic_streambuf@DU?$char_traits@D@std@@@2@XZ
  ?rdbuf@?$basic_ios@GU?$char_traits@G@std@@@std@@QAEPAV?$basic_streambuf@GU?$char_traits@G@std@@@2@PAV32@@Z
  ?rdbuf@?$basic_ios@GU?$char_traits@G@std@@@std@@QBEPAV?$basic_streambuf@GU?$char_traits@G@std@@@2@XZ
  ?rdbuf@?$basic_ios@_WU?$char_traits@_W@std@@@std@@QAEPAV?$basic_streambuf@_WU?$char_traits@_W@std@@@2@PAV32@@Z
  ?rdbuf@?$basic_ios@_WU?$char_traits@_W@std@@@std@@QBEPAV?$basic_streambuf@_WU?$char_traits@_W@std@@@2@XZ
  ?rdstate@ios_base@std@@QBEHXZ
  ?read@?$basic_istream@DU?$char_traits@D@std@@@std@@QAEAAV12@PAD_J@Z
  ?read@?$basic_istream@GU?$char_traits@G@std@@@std@@QAEAAV12@PAG_J@Z
  ?read@?$basic_istream@_WU?$char_traits@_W@std@@@std@@QAEAAV12@PA_W_J@Z
  ?readsome@?$basic_istream@DU?$char_traits@D@std@@@std@@QAE_JPAD_J@Z
  ?readsome@?$basic_istream@GU?$char_traits@G@std@@@std@@QAE_JPAG_J@Z
  ?readsome@?$basic_istream@_WU?$char_traits@_W@std@@@std@@QAE_JPA_W_J@Z
  ?register_callback@ios_base@std@@QAEXP6AXW4event@12@AAV12@H@ZH@Z
  ?resetiosflags@std@@YA?AU?$_Smanip@H@1@H@Z
  ?round_error@?$numeric_limits@C@std@@SACXZ
  ?round_error@?$numeric_limits@D@std@@SADXZ
  ?round_error@?$numeric_limits@E@std@@SAEXZ
  ?round_error@?$numeric_limits@F@std@@SAFXZ
  ?round_error@?$numeric_limits@G@std@@SAGXZ
  ?round_error@?$numeric_limits@H@std@@SAHXZ
  ?round_error@?$numeric_limits@I@std@@SAIXZ
  ?round_error@?$numeric_limits@J@std@@SAJXZ
  ?round_error@?$numeric_limits@K@std@@SAKXZ
  ?round_error@?$numeric_limits@M@std@@SAMXZ
  ?round_error@?$numeric_limits@N@std@@SANXZ
  ?round_error@?$numeric_limits@O@std@@SAOXZ
  ?round_error@?$numeric_limits@_J@std@@SA_JXZ
  ?round_error@?$numeric_limits@_K@std@@SA_KXZ
  ?round_error@?$numeric_limits@_N@std@@SA_NXZ
  ?round_error@?$numeric_limits@_W@std@@SA_WXZ
  ?round_style@_Num_base@std@@2W4float_round_style@2@B
  ?round_style@_Num_float_base@std@@2W4float_round_style@2@B
  ?sbumpc@?$basic_streambuf@DU?$char_traits@D@std@@@std@@QAEHXZ
  ?sbumpc@?$basic_streambuf@GU?$char_traits@G@std@@@std@@QAEGXZ
  ?sbumpc@?$basic_streambuf@_WU?$char_traits@_W@std@@@std@@QAEGXZ
  ?scan_is@?$ctype@D@std@@QBEPBDFPBD0@Z
  ?scan_is@?$ctype@G@std@@QBEPBGFPBG0@Z
  ?scan_is@?$ctype@_W@std@@QBEPB_WFPB_W0@Z
  ?scan_not@?$ctype@D@std@@QBEPBDFPBD0@Z
  ?scan_not@?$ctype@G@std@@QBEPBGFPBG0@Z
  ?scan_not@?$ctype@_W@std@@QBEPB_WFPB_W0@Z
  ?seekg@?$basic_istream@DU?$char_traits@D@std@@@std@@QAEAAV12@V?$fpos@H@2@@Z
  ?seekg@?$basic_istream@DU?$char_traits@D@std@@@std@@QAEAAV12@_JH@Z
  ?seekg@?$basic_istream@GU?$char_traits@G@std@@@std@@QAEAAV12@V?$fpos@H@2@@Z
  ?seekg@?$basic_istream@GU?$char_traits@G@std@@@std@@QAEAAV12@_JH@Z
  ?seekg@?$basic_istream@_WU?$char_traits@_W@std@@@std@@QAEAAV12@V?$fpos@H@2@@Z
  ?seekg@?$basic_istream@_WU?$char_traits@_W@std@@@std@@QAEAAV12@_JH@Z
  ?seekoff@?$basic_streambuf@DU?$char_traits@D@std@@@std@@MAE?AV?$fpos@H@2@_JHH@Z
  ?seekoff@?$basic_streambuf@GU?$char_traits@G@std@@@std@@MAE?AV?$fpos@H@2@_JHH@Z
  ?seekoff@?$basic_streambuf@_WU?$char_traits@_W@std@@@std@@MAE?AV?$fpos@H@2@_JHH@Z
  ?seekp@?$basic_ostream@DU?$char_traits@D@std@@@std@@QAEAAV12@V?$fpos@H@2@@Z
  ?seekp@?$basic_ostream@DU?$char_traits@D@std@@@std@@QAEAAV12@_JH@Z
  ?seekp@?$basic_ostream@GU?$char_traits@G@std@@@std@@QAEAAV12@V?$fpos@H@2@@Z
  ?seekp@?$basic_ostream@GU?$char_traits@G@std@@@std@@QAEAAV12@_JH@Z
  ?seekp@?$basic_ostream@_WU?$char_traits@_W@std@@@std@@QAEAAV12@V?$fpos@H@2@@Z
  ?seekp@?$basic_ostream@_WU?$char_traits@_W@std@@@std@@QAEAAV12@_JH@Z
  ?seekpos@?$basic_streambuf@DU?$char_traits@D@std@@@std@@MAE?AV?$fpos@H@2@V32@H@Z
  ?seekpos@?$basic_streambuf@GU?$char_traits@G@std@@@std@@MAE?AV?$fpos@H@2@V32@H@Z
  ?seekpos@?$basic_streambuf@_WU?$char_traits@_W@std@@@std@@MAE?AV?$fpos@H@2@V32@H@Z
  ?set_new_handler@std@@YAP6AXXZH@Z
  ?set_new_handler@std@@YAP6AXXZP6AXXZ@Z
  ?set_rdbuf@?$basic_ios@DU?$char_traits@D@std@@@std@@QAEXPAV?$basic_streambuf@DU?$char_traits@D@std@@@2@@Z
  ?set_rdbuf@?$basic_ios@GU?$char_traits@G@std@@@std@@QAEXPAV?$basic_streambuf@GU?$char_traits@G@std@@@2@@Z
  ?set_rdbuf@?$basic_ios@_WU?$char_traits@_W@std@@@std@@QAEXPAV?$basic_streambuf@_WU?$char_traits@_W@std@@@2@@Z
  ?setbase@std@@YA?AU?$_Smanip@H@1@H@Z
  ?setbuf@?$basic_streambuf@DU?$char_traits@D@std@@@std@@MAEPAV12@PAD_J@Z
  ?setbuf@?$basic_streambuf@GU?$char_traits@G@std@@@std@@MAEPAV12@PAG_J@Z
  ?setbuf@?$basic_streambuf@_WU?$char_traits@_W@std@@@std@@MAEPAV12@PA_W_J@Z
  ?setf@ios_base@std@@QAEHH@Z
  ?setf@ios_base@std@@QAEHHH@Z
  ?setg@?$basic_streambuf@DU?$char_traits@D@std@@@std@@IAEXPAD00@Z
  ?setg@?$basic_streambuf@GU?$char_traits@G@std@@@std@@IAEXPAG00@Z
  ?setg@?$basic_streambuf@_WU?$char_traits@_W@std@@@std@@IAEXPA_W00@Z
  ?setiosflags@std@@YA?AU?$_Smanip@H@1@H@Z
  ?setp@?$basic_streambuf@DU?$char_traits@D@std@@@std@@IAEXPAD00@Z
  ?setp@?$basic_streambuf@DU?$char_traits@D@std@@@std@@IAEXPAD0@Z
  ?setp@?$basic_streambuf@GU?$char_traits@G@std@@@std@@IAEXPAG00@Z
  ?setp@?$basic_streambuf@GU?$char_traits@G@std@@@std@@IAEXPAG0@Z
  ?setp@?$basic_streambuf@_WU?$char_traits@_W@std@@@std@@IAEXPA_W00@Z
  ?setp@?$basic_streambuf@_WU?$char_traits@_W@std@@@std@@IAEXPA_W0@Z
  ?setprecision@std@@YA?AU?$_Smanip@_J@1@_J@Z
  ?setstate@?$basic_ios@DU?$char_traits@D@std@@@std@@QAEXH_N@Z
  ?setstate@?$basic_ios@DU?$char_traits@D@std@@@std@@QAEXI@Z
  ?setstate@?$basic_ios@GU?$char_traits@G@std@@@std@@QAEXH_N@Z
  ?setstate@?$basic_ios@GU?$char_traits@G@std@@@std@@QAEXI@Z
  ?setstate@?$basic_ios@_WU?$char_traits@_W@std@@@std@@QAEXH_N@Z
  ?setstate@?$basic_ios@_WU?$char_traits@_W@std@@@std@@QAEXI@Z
  ?setstate@ios_base@std@@QAEXH@Z
  ?setstate@ios_base@std@@QAEXH_N@Z
  ?setstate@ios_base@std@@QAEXI@Z
  ?setw@std@@YA?AU?$_Smanip@_J@1@_J@Z
  ?sgetc@?$basic_streambuf@DU?$char_traits@D@std@@@std@@QAEHXZ
  ?sgetc@?$basic_streambuf@GU?$char_traits@G@std@@@std@@QAEGXZ
  ?sgetc@?$basic_streambuf@_WU?$char_traits@_W@std@@@std@@QAEGXZ
  ?sgetn@?$basic_streambuf@DU?$char_traits@D@std@@@std@@QAE_JPAD_J@Z
  ?sgetn@?$basic_streambuf@GU?$char_traits@G@std@@@std@@QAE_JPAG_J@Z
  ?sgetn@?$basic_streambuf@_WU?$char_traits@_W@std@@@std@@QAE_JPA_W_J@Z
  ?showmanyc@?$basic_streambuf@DU?$char_traits@D@std@@@std@@MAE_JXZ
  ?showmanyc@?$basic_streambuf@GU?$char_traits@G@std@@@std@@MAE_JXZ
  ?showmanyc@?$basic_streambuf@_WU?$char_traits@_W@std@@@std@@MAE_JXZ
  ?signaling_NaN@?$numeric_limits@C@std@@SACXZ
  ?signaling_NaN@?$numeric_limits@D@std@@SADXZ
  ?signaling_NaN@?$numeric_limits@E@std@@SAEXZ
  ?signaling_NaN@?$numeric_limits@F@std@@SAFXZ
  ?signaling_NaN@?$numeric_limits@G@std@@SAGXZ
  ?signaling_NaN@?$numeric_limits@H@std@@SAHXZ
  ?signaling_NaN@?$numeric_limits@I@std@@SAIXZ
  ?signaling_NaN@?$numeric_limits@J@std@@SAJXZ
  ?signaling_NaN@?$numeric_limits@K@std@@SAKXZ
  ?signaling_NaN@?$numeric_limits@M@std@@SAMXZ
  ?signaling_NaN@?$numeric_limits@N@std@@SANXZ
  ?signaling_NaN@?$numeric_limits@O@std@@SAOXZ
  ?signaling_NaN@?$numeric_limits@_J@std@@SA_JXZ
  ?signaling_NaN@?$numeric_limits@_K@std@@SA_KXZ
  ?signaling_NaN@?$numeric_limits@_N@std@@SA_NXZ
  ?signaling_NaN@?$numeric_limits@_W@std@@SA_WXZ
  ?snextc@?$basic_streambuf@DU?$char_traits@D@std@@@std@@QAEHXZ
  ?snextc@?$basic_streambuf@GU?$char_traits@G@std@@@std@@QAEGXZ
  ?snextc@?$basic_streambuf@_WU?$char_traits@_W@std@@@std@@QAEGXZ
  ?sputbackc@?$basic_streambuf@DU?$char_traits@D@std@@@std@@QAEHD@Z
  ?sputbackc@?$basic_streambuf@GU?$char_traits@G@std@@@std@@QAEGG@Z
  ?sputbackc@?$basic_streambuf@_WU?$char_traits@_W@std@@@std@@QAEG_W@Z
  ?sputc@?$basic_streambuf@DU?$char_traits@D@std@@@std@@QAEHD@Z
  ?sputc@?$basic_streambuf@GU?$char_traits@G@std@@@std@@QAEGG@Z
  ?sputc@?$basic_streambuf@_WU?$char_traits@_W@std@@@std@@QAEG_W@Z
  ?sputn@?$basic_streambuf@DU?$char_traits@D@std@@@std@@QAE_JPBD_J@Z
  ?sputn@?$basic_streambuf@GU?$char_traits@G@std@@@std@@QAE_JPBG_J@Z
  ?sputn@?$basic_streambuf@_WU?$char_traits@_W@std@@@std@@QAE_JPB_W_J@Z
  ?start@agent@Concurrency@@QAE_NXZ
  ?status@agent@Concurrency@@QAE?AW4agent_status@2@XZ
  ?status_port@agent@Concurrency@@QAEPAV?$ISource@W4agent_status@Concurrency@@@2@XZ
  ?stossc@?$basic_streambuf@DU?$char_traits@D@std@@@std@@QAEXXZ
  ?stossc@?$basic_streambuf@GU?$char_traits@G@std@@@std@@QAEXXZ
  ?stossc@?$basic_streambuf@_WU?$char_traits@_W@std@@@std@@QAEXXZ
  ?sungetc@?$basic_streambuf@DU?$char_traits@D@std@@@std@@QAEHXZ
  ?sungetc@?$basic_streambuf@GU?$char_traits@G@std@@@std@@QAEGXZ
  ?sungetc@?$basic_streambuf@_WU?$char_traits@_W@std@@@std@@QAEGXZ
  ?swap@?$basic_ios@DU?$char_traits@D@std@@@std@@QAEXAAV12@@Z
  ?swap@?$basic_ios@GU?$char_traits@G@std@@@std@@QAEXAAV12@@Z
  ?swap@?$basic_ios@_WU?$char_traits@_W@std@@@std@@QAEXAAV12@@Z
  ?swap@?$basic_iostream@DU?$char_traits@D@std@@@std@@QAEXAAV12@@Z
  ?swap@?$basic_iostream@GU?$char_traits@G@std@@@std@@QAEXAAV12@@Z
  ?swap@?$basic_iostream@_WU?$char_traits@_W@std@@@std@@QAEXAAV12@@Z
  ?swap@?$basic_istream@DU?$char_traits@D@std@@@std@@QAEXAAV12@@Z
  ?swap@?$basic_istream@GU?$char_traits@G@std@@@std@@QAEXAAV12@@Z
  ?swap@?$basic_istream@_WU?$char_traits@_W@std@@@std@@QAEXAAV12@@Z
  ?swap@?$basic_ostream@DU?$char_traits@D@std@@@std@@QAEXAAV12@@Z
  ?swap@?$basic_ostream@GU?$char_traits@G@std@@@std@@QAEXAAV12@@Z
  ?swap@?$basic_ostream@_WU?$char_traits@_W@std@@@std@@QAEXAAV12@@Z
  ?swap@?$basic_streambuf@DU?$char_traits@D@std@@@std@@IAEXAAV12@@Z
  ?swap@?$basic_streambuf@GU?$char_traits@G@std@@@std@@IAEXAAV12@@Z
  ?swap@?$basic_streambuf@_WU?$char_traits@_W@std@@@std@@IAEXAAV12@@Z
  ?swap@ios_base@std@@QAEXAAV12@@Z
  ?sync@?$basic_istream@DU?$char_traits@D@std@@@std@@QAEHXZ
  ?sync@?$basic_istream@GU?$char_traits@G@std@@@std@@QAEHXZ
  ?sync@?$basic_istream@_WU?$char_traits@_W@std@@@std@@QAEHXZ
  ?sync@?$basic_streambuf@DU?$char_traits@D@std@@@std@@MAEHXZ
  ?sync@?$basic_streambuf@GU?$char_traits@G@std@@@std@@MAEHXZ
  ?sync@?$basic_streambuf@_WU?$char_traits@_W@std@@@std@@MAEHXZ
  ?sync_with_stdio@ios_base@std@@SA_N_N@Z
  ?system_category@std@@YAABVerror_category@1@XZ
  ?table@?$ctype@D@std@@QBEPBFXZ
  ?table_size@?$ctype@D@std@@2IB
  ?tellg@?$basic_istream@DU?$char_traits@D@std@@@std@@QAE?AV?$fpos@H@2@XZ
  ?tellg@?$basic_istream@GU?$char_traits@G@std@@@std@@QAE?AV?$fpos@H@2@XZ
  ?tellg@?$basic_istream@_WU?$char_traits@_W@std@@@std@@QAE?AV?$fpos@H@2@XZ
  ?tellp@?$basic_ostream@DU?$char_traits@D@std@@@std@@QAE?AV?$fpos@H@2@XZ
  ?tellp@?$basic_ostream@GU?$char_traits@G@std@@@std@@QAE?AV?$fpos@H@2@XZ
  ?tellp@?$basic_ostream@_WU?$char_traits@_W@std@@@std@@QAE?AV?$fpos@H@2@XZ
  ?tie@?$basic_ios@DU?$char_traits@D@std@@@std@@QAEPAV?$basic_ostream@DU?$char_traits@D@std@@@2@PAV32@@Z
  ?tie@?$basic_ios@DU?$char_traits@D@std@@@std@@QBEPAV?$basic_ostream@DU?$char_traits@D@std@@@2@XZ
  ?tie@?$basic_ios@GU?$char_traits@G@std@@@std@@QAEPAV?$basic_ostream@GU?$char_traits@G@std@@@2@PAV32@@Z
  ?tie@?$basic_ios@GU?$char_traits@G@std@@@std@@QBEPAV?$basic_ostream@GU?$char_traits@G@std@@@2@XZ
  ?tie@?$basic_ios@_WU?$char_traits@_W@std@@@std@@QAEPAV?$basic_ostream@_WU?$char_traits@_W@std@@@2@PAV32@@Z
  ?tie@?$basic_ios@_WU?$char_traits@_W@std@@@std@@QBEPAV?$basic_ostream@_WU?$char_traits@_W@std@@@2@XZ
  ?tinyness_before@_Num_base@std@@2_NB
  ?tinyness_before@_Num_float_base@std@@2_NB
  ?tolower@?$ctype@D@std@@QBEDD@Z
  ?tolower@?$ctype@D@std@@QBEPBDPADPBD@Z
  ?tolower@?$ctype@G@std@@QBEGG@Z
  ?tolower@?$ctype@G@std@@QBEPBGPAGPBG@Z
  ?tolower@?$ctype@_W@std@@QBEPB_WPA_WPB_W@Z
  ?tolower@?$ctype@_W@std@@QBE_W_W@Z
  ?toupper@?$ctype@D@std@@QBEDD@Z
  ?toupper@?$ctype@D@std@@QBEPBDPADPBD@Z
  ?toupper@?$ctype@G@std@@QBEGG@Z
  ?toupper@?$ctype@G@std@@QBEPBGPAGPBG@Z
  ?toupper@?$ctype@_W@std@@QBEPB_WPA_WPB_W@Z
  ?toupper@?$ctype@_W@std@@QBE_W_W@Z
  ?traps@_Num_base@std@@2_NB
  ?traps@_Num_float_base@std@@2_NB
  ?uflow@?$basic_streambuf@DU?$char_traits@D@std@@@std@@MAEHXZ
  ?uflow@?$basic_streambuf@GU?$char_traits@G@std@@@std@@MAEGXZ
  ?uflow@?$basic_streambuf@_WU?$char_traits@_W@std@@@std@@MAEGXZ
  ?uncaught_exception@std@@YA_NXZ
  ?underflow@?$basic_streambuf@DU?$char_traits@D@std@@@std@@MAEHXZ
  ?underflow@?$basic_streambuf@GU?$char_traits@G@std@@@std@@MAEGXZ
  ?underflow@?$basic_streambuf@_WU?$char_traits@_W@std@@@std@@MAEGXZ
  ?unget@?$basic_istream@DU?$char_traits@D@std@@@std@@QAEAAV12@XZ
  ?unget@?$basic_istream@GU?$char_traits@G@std@@@std@@QAEAAV12@XZ
  ?unget@?$basic_istream@_WU?$char_traits@_W@std@@@std@@QAEAAV12@XZ
  ?unsetf@ios_base@std@@QAEXH@Z
  ?unshift@?$codecvt@DDH@std@@QBEHAAHPAD1AAPAD@Z
  ?unshift@?$codecvt@GDH@std@@QBEHAAHPAD1AAPAD@Z
  ?unshift@?$codecvt@_WDH@std@@QBEHAAHPAD1AAPAD@Z
  ?wait@agent@Concurrency@@SA?AW4agent_status@2@PAV12@I@Z
  ?wait_for_all@agent@Concurrency@@SAXIPAPAV12@PAW4agent_status@2@I@Z
  ?wait_for_one@agent@Concurrency@@SAXIPAPAV12@AAW4agent_status@2@AAII@Z
  ?wcerr@std@@3V?$basic_ostream@GU?$char_traits@G@std@@@1@A
  ?wcerr@std@@3V?$basic_ostream@_WU?$char_traits@_W@std@@@1@A
  ?wcin@std@@3V?$basic_istream@GU?$char_traits@G@std@@@1@A
  ?wcin@std@@3V?$basic_istream@_WU?$char_traits@_W@std@@@1@A
  ?wclog@std@@3V?$basic_ostream@GU?$char_traits@G@std@@@1@A
  ?wclog@std@@3V?$basic_ostream@_WU?$char_traits@_W@std@@@1@A
  ?wcout@std@@3V?$basic_ostream@GU?$char_traits@G@std@@@1@A
  ?wcout@std@@3V?$basic_ostream@_WU?$char_traits@_W@std@@@1@A
  ?widen@?$basic_ios@DU?$char_traits@D@std@@@std@@QBEDD@Z
  ?widen@?$basic_ios@GU?$char_traits@G@std@@@std@@QBEGD@Z
  ?widen@?$basic_ios@_WU?$char_traits@_W@std@@@std@@QBE_WD@Z
  ?widen@?$ctype@D@std@@QBEDD@Z
  ?widen@?$ctype@D@std@@QBEPBDPBD0PAD@Z
  ?widen@?$ctype@G@std@@QBEGD@Z
  ?widen@?$ctype@G@std@@QBEPBDPBD0PAG@Z
  ?widen@?$ctype@_W@std@@QBEPBDPBD0PA_W@Z
  ?widen@?$ctype@_W@std@@QBE_WD@Z
  ?width@ios_base@std@@QAE_J_J@Z
  ?width@ios_base@std@@QBE_JXZ
  ?write@?$basic_ostream@DU?$char_traits@D@std@@@std@@QAEAAV12@PBD_J@Z
  ?write@?$basic_ostream@GU?$char_traits@G@std@@@std@@QAEAAV12@PBG_J@Z
  ?write@?$basic_ostream@_WU?$char_traits@_W@std@@@std@@QAEAAV12@PB_W_J@Z
  ?ws@std@@YAAAV?$basic_istream@DU?$char_traits@D@std@@@1@AAV21@@Z
  ?ws@std@@YAAAV?$basic_istream@GU?$char_traits@G@std@@@1@AAV21@@Z
  ?ws@std@@YAAAV?$basic_istream@_WU?$char_traits@_W@std@@@1@AAV21@@Z
  ?xalloc@ios_base@std@@SAHXZ
  ?xsgetn@?$basic_streambuf@DU?$char_traits@D@std@@@std@@MAE_JPAD_J@Z
  ?xsgetn@?$basic_streambuf@GU?$char_traits@G@std@@@std@@MAE_JPAG_J@Z
  ?xsgetn@?$basic_streambuf@_WU?$char_traits@_W@std@@@std@@MAE_JPA_W_J@Z
  ?xsputn@?$basic_streambuf@DU?$char_traits@D@std@@@std@@MAE_JPBD_J@Z
  ?xsputn@?$basic_streambuf@GU?$char_traits@G@std@@@std@@MAE_JPBG_J@Z
  ?xsputn@?$basic_streambuf@_WU?$char_traits@_W@std@@@std@@MAE_JPB_W_J@Z
  _Cosh
  _Denorm
  _Dnorm
  _Dscale
  _Dtest
  _Eps
  _Exp
  _FCosh
  _FDenorm
  _FDnorm
  _FDscale
  _FDtest
  _FEps
  _FExp
  _FInf
  _FNan
  _FRteps
  _FSinh
  _FSnan
  _FXbig
  _GetLocaleForCP
  _Getcoll
  _Getctype
  _Getcvt
  _Getdateorder
  _Getwctype
  _Getwctypes
  _Hugeval
  _Inf
  _LCosh
  _LDenorm
  _LDscale
  _LDtest
  _LEps
  _LExp
  _LInf
  _LNan
  _LPoly
  _LRteps
  _LSinh
  _LSnan
  _LXbig
  _LZero
  _Mbrtowc
  _Mtxdst
  _Mtxinit
  _Mtxlock
  _Mtxunlock
  _Nan
  _Once
  _Poly
  _Rteps
  _Sinh
  _Snan
  _Stod
  _Stodx
  _Stof
  _Stofx
  _Stold
  _Stoldx
  _Stoll
  _Stollx
  _Stolx
  _Stoul
  _Stoull
  _Stoullx
  _Stoulx
  _Strcoll
  _Strxfrm
  _Tolower
  _Toupper
  _Towlower
  _Towupper
  _Wcrtomb
  _Wcscoll
  _Wcsxfrm
  _Xbig
  __Wcrtomb_lk
  towctrans
  wctrans
  wctype

