; $Id: VBoxRTImp-gcc.def $
;; @file
; VirtualBox Runtime DLL - Stable C++ Interface Definition file, 64-bit Visual C++.

;
; Copyright (C) 2018-2023 Oracle and/or its affiliates.
;
; This file is part of VirtualBox base platform packages, as
; available from https://www.virtualbox.org.
;
; This program is free software; you can redistribute it and/or
; modify it under the terms of the GNU General Public License
; as published by the Free Software Foundation, in version 3 of the
; License.
;
; This program is distributed in the hope that it will be useful, but
; WITHOUT ANY WARRANTY; without even the implied warranty of
; MERCHANTABILITY or FITNESS FOR A PARTICULAR PURPOSE.  See the GNU
; General Public License for more details.
;
; You should have received a copy of the GNU General Public License
; along with this program; if not, see <https://www.gnu.org/licenses>.
;
; The contents of this file may alternatively be used under the terms
; of the Common Development and Distribution License Version 1.0
; (CDDL), a copy of it is provided in the "COPYING.CDDL" file included
; in the VirtualBox distribution, in which case the provisions of the
; CDDL are applicable instead of those of the GPL.
;
; You may elect to license modified versions of this file under the
; terms and conditions of either the GPL or the CDDL or both.
;
; SPDX-License-Identifier: GPL-3.0-only OR CDDL-1.0
;

EXPORTS
    ;
    ; RTCString & RTCRest classes.
    ;
    ; Use one of the following command-line to generate the stuff below:
    ;   nm ../../../out/darwin.amd64/debug/obj/VBoxRT/VBoxRT.dylib -U | LC_COLLATE=C kmk_sed -re '/(RTCString|RTCRest)/!d' -e 's/^[0-9a-fA-F]+ //' -e '/^[A-Z]/!d'      -e 's/[SDBC] (.+)$/    \1 DATA/' -e 's/^[A-Z] /    /' -e 's/ __/ _/' | LC_COLLATE=C sort >> VBox/VBoxRTImp-gcc.def
    ;   nm ../../../out/linux.amd64/debug/obj/VBoxRT/VBoxRT.so        | LC_COLLATE=C kmk_sed -re '/(RTCString|RTCRest)/!d' -e 's/^[0-9a-fA-F]+ //' -e '/^[A-TV-Z]/!d' -e 's/[SDBCRV] (.+)$/    \1 DATA/' -e 's/^[A-Z] /    /'                | LC_COLLATE=C sort  >> VBox/VBoxRTImp-gcc.def
    ;
    _ZN11RTCRestBool10assignCopyERKS_
    _ZN11RTCRestBool10fromStringERK9RTCStringPKcP9RTERRINFOj
    _ZN11RTCRestBool11assignValueEb
    _ZN11RTCRestBool14createInstanceEv
    _ZN11RTCRestBool14resetToDefaultEv
    _ZN11RTCRestBool19deserializeFromJsonERK17RTCRestJsonCursor
    _ZN11RTCRestBool27deserializeInstanceFromJsonERK17RTCRestJsonCursorPP17RTCRestObjectBase
    _ZN11RTCRestBoolC1ERKS_
    _ZN11RTCRestBoolC1Eb
    _ZN11RTCRestBoolC1Ev
    _ZN11RTCRestBoolC2ERKS_
    _ZN11RTCRestBoolC2Eb
    _ZN11RTCRestBoolC2Ev
    _ZN11RTCRestBoolD0Ev
    _ZN11RTCRestBoolD1Ev
    _ZN11RTCRestBoolD2Ev
    _ZN11RTCRestBoolaSERKS_
    _ZN11RTCRestDate10assignCopyERKS_
    _ZN11RTCRestDate10fromStringERK9RTCStringPKcP9RTERRINFOj
    _ZN11RTCRestDate11assignValueEPK10RTTIMESPECNS_7kFormatE
    _ZN11RTCRestDate14createInstanceEv
    _ZN11RTCRestDate14resetToDefaultEv
    _ZN11RTCRestDate16assignNowRfc2822Ev
    _ZN11RTCRestDate16assignNowRfc3339Ev
    _ZN11RTCRestDate16assignNowRfc7131Ev
    _ZN11RTCRestDate16explodeAndFormatENS_7kFormatE
    _ZN11RTCRestDate18assignValueRfc2822EPK10RTTIMESPEC
    _ZN11RTCRestDate18assignValueRfc3339EPK10RTTIMESPEC
    _ZN11RTCRestDate18assignValueRfc7131EPK10RTTIMESPEC
    _ZN11RTCRestDate19deserializeFromJsonERK17RTCRestJsonCursor
    _ZN11RTCRestDate21decodeFormattedStringENS_7kFormatE
    _ZN11RTCRestDate27deserializeInstanceFromJsonERK17RTCRestJsonCursorPP17RTCRestObjectBase
    _ZN11RTCRestDate6formatENS_7kFormatE
    _ZN11RTCRestDate9assignNowENS_7kFormatE
    _ZN11RTCRestDate9setFormatENS_7kFormatE
    _ZN11RTCRestDateC1ERKS_
    _ZN11RTCRestDateC1Ev
    _ZN11RTCRestDateC2ERKS_
    _ZN11RTCRestDateC2Ev
    _ZN11RTCRestDateD0Ev
    _ZN11RTCRestDateD1Ev
    _ZN11RTCRestDateD2Ev
    _ZN11RTCRestDateaSERKS_
    _ZN12RTCRestInt1610assignCopyERKS_
    _ZN12RTCRestInt1610fromStringERK9RTCStringPKcP9RTERRINFOj
    _ZN12RTCRestInt1611assignValueEs
    _ZN12RTCRestInt1614createInstanceEv
    _ZN12RTCRestInt1614resetToDefaultEv
    _ZN12RTCRestInt1619deserializeFromJsonERK17RTCRestJsonCursor
    _ZN12RTCRestInt1627deserializeInstanceFromJsonERK17RTCRestJsonCursorPP17RTCRestObjectBase
    _ZN12RTCRestInt16C1ERKS_
    _ZN12RTCRestInt16C1Es
    _ZN12RTCRestInt16C1Ev
    _ZN12RTCRestInt16C2ERKS_
    _ZN12RTCRestInt16C2Es
    _ZN12RTCRestInt16C2Ev
    _ZN12RTCRestInt16D0Ev
    _ZN12RTCRestInt16D1Ev
    _ZN12RTCRestInt16D2Ev
    _ZN12RTCRestInt16aSERKS_
    _ZN12RTCRestInt3210assignCopyERKS_
    _ZN12RTCRestInt3210fromStringERK9RTCStringPKcP9RTERRINFOj
    _ZN12RTCRestInt3211assignValueEi
    _ZN12RTCRestInt3214createInstanceEv
    _ZN12RTCRestInt3214resetToDefaultEv
    _ZN12RTCRestInt3219deserializeFromJsonERK17RTCRestJsonCursor
    _ZN12RTCRestInt3227deserializeInstanceFromJsonERK17RTCRestJsonCursorPP17RTCRestObjectBase
    _ZN12RTCRestInt32C1ERKS_
    _ZN12RTCRestInt32C1Ei
    _ZN12RTCRestInt32C1Ev
    _ZN12RTCRestInt32C2ERKS_
    _ZN12RTCRestInt32C2Ei
    _ZN12RTCRestInt32C2Ev
    _ZN12RTCRestInt32D0Ev
    _ZN12RTCRestInt32D1Ev
    _ZN12RTCRestInt32D2Ev
    _ZN12RTCRestInt32aSERKS_
    _ZN12RTCRestInt6410assignCopyERKS_
    _ZN12RTCRestInt6410fromStringERK9RTCStringPKcP9RTERRINFOj
    _ZN12RTCRestInt6411assignValueEx
    _ZN12RTCRestInt6414createInstanceEv
    _ZN12RTCRestInt6414resetToDefaultEv
    _ZN12RTCRestInt6419deserializeFromJsonERK17RTCRestJsonCursor
    _ZN12RTCRestInt6427deserializeInstanceFromJsonERK17RTCRestJsonCursorPP17RTCRestObjectBase
    _ZN12RTCRestInt64C1ERKS_
    _ZN12RTCRestInt64C1Ev
    _ZN12RTCRestInt64C1Ex
    _ZN12RTCRestInt64C2ERKS_
    _ZN12RTCRestInt64C2Ev
    _ZN12RTCRestInt64C2Ex
    _ZN12RTCRestInt64D0Ev
    _ZN12RTCRestInt64D1Ev
    _ZN12RTCRestInt64D2Ev
    _ZN12RTCRestInt64aSERKS_
    _ZN13RTCRestBinary10assignCopyEPKvm
    _ZN13RTCRestBinary10assignCopyERKS_
    _ZN13RTCRestBinary10fromStringERK9RTCStringPKcP9RTERRINFOj
    _ZN13RTCRestBinary14assignReadOnlyEPKvm
    _ZN13RTCRestBinary14createInstanceEv
    _ZN13RTCRestBinary14resetToDefaultEv
    _ZN13RTCRestBinary15assignWriteableEPvm
    _ZN13RTCRestBinary19deserializeFromJsonERK17RTCRestJsonCursor
    _ZN13RTCRestBinary27deserializeInstanceFromJsonERK17RTCRestJsonCursorPP17RTCRestObjectBase
    _ZN13RTCRestBinary7setNullEv
    _ZN13RTCRestBinary8freeDataEv
    _ZN13RTCRestBinaryC1Ev
    _ZN13RTCRestBinaryC2Ev
    _ZN13RTCRestBinaryD0Ev
    _ZN13RTCRestBinaryD1Ev
    _ZN13RTCRestBinaryD2Ev
    _ZN13RTCRestDouble10assignCopyERKS_
    _ZN13RTCRestDouble10fromStringERK9RTCStringPKcP9RTERRINFOj
    _ZN13RTCRestDouble11assignValueEd
    _ZN13RTCRestDouble14createInstanceEv
    _ZN13RTCRestDouble14resetToDefaultEv
    _ZN13RTCRestDouble19deserializeFromJsonERK17RTCRestJsonCursor
    _ZN13RTCRestDouble27deserializeInstanceFromJsonERK17RTCRestJsonCursorPP17RTCRestObjectBase
    _ZN13RTCRestDoubleC1ERKS_
    _ZN13RTCRestDoubleC1Ed
    _ZN13RTCRestDoubleC1Ev
    _ZN13RTCRestDoubleC2ERKS_
    _ZN13RTCRestDoubleC2Ed
    _ZN13RTCRestDoubleC2Ev
    _ZN13RTCRestDoubleD0Ev
    _ZN13RTCRestDoubleD1Ev
    _ZN13RTCRestDoubleD2Ev
    _ZN13RTCRestDoubleaSERKS_
    _ZN13RTCRestString10assignCopyEPKc
    _ZN13RTCRestString10assignCopyERK9RTCString
    _ZN13RTCRestString10assignCopyERKS_
    _ZN13RTCRestString10fromStringERK9RTCStringPKcP9RTERRINFOj
    _ZN13RTCRestString13assignNoThrowEPKc
    _ZN13RTCRestString13assignNoThrowEPKcm
    _ZN13RTCRestString13assignNoThrowERK9RTCString
    _ZN13RTCRestString13assignNoThrowERK9RTCStringmm
    _ZN13RTCRestString13assignNoThrowEmc
    _ZN13RTCRestString13printfNoThrowEPKcz
    _ZN13RTCRestString14createInstanceEv
    _ZN13RTCRestString14printfVNoThrowEPKcP13__va_list_tag ; not-arm64
    _ZN13RTCRestString14printfVNoThrowEPKcPc               ; only-arm64
    _ZN13RTCRestString14resetToDefaultEv
    _ZN13RTCRestString19deserializeFromJsonERK17RTCRestJsonCursor
    _ZN13RTCRestString27deserializeInstanceFromJsonERK17RTCRestJsonCursorPP17RTCRestObjectBase
    _ZN13RTCRestString6assignEPKc
    _ZN13RTCRestString6assignEPKcm
    _ZN13RTCRestString6assignERK9RTCString
    _ZN13RTCRestString6assignERK9RTCStringmm
    _ZN13RTCRestString6assignEmc
    _ZN13RTCRestString6printfEPKcz
    _ZN13RTCRestString7printfVEPKcP13__va_list_tag ; not-arm64
    _ZN13RTCRestString7printfVEPKcPc               ; only-arm64
    _ZN13RTCRestString7setNullEv
    _ZN13RTCRestStringC1EPKc
    _ZN13RTCRestStringC1ERK9RTCString
    _ZN13RTCRestStringC1ERKS_
    _ZN13RTCRestStringC1Ev
    _ZN13RTCRestStringC2EPKc
    _ZN13RTCRestStringC2ERK9RTCString
    _ZN13RTCRestStringC2ERKS_
    _ZN13RTCRestStringC2Ev
    _ZN13RTCRestStringD0Ev
    _ZN13RTCRestStringD1Ev
    _ZN13RTCRestStringD2Ev
    _ZN13RTCRestStringaSEPKc
    _ZN13RTCRestStringaSERK9RTCString
    _ZN13RTCRestStringaSERKS_
    _ZN16RTCRestAnyObject10assignCopyERK11RTCRestBool
    _ZN16RTCRestAnyObject10assignCopyERK12RTCRestArrayIS_E
    _ZN16RTCRestAnyObject10assignCopyERK12RTCRestInt16
    _ZN16RTCRestAnyObject10assignCopyERK12RTCRestInt32
    _ZN16RTCRestAnyObject10assignCopyERK12RTCRestInt64
    _ZN16RTCRestAnyObject10assignCopyERK13RTCRestDouble
    _ZN16RTCRestAnyObject10assignCopyERK13RTCRestString
    _ZN16RTCRestAnyObject10assignCopyERK16RTCRestStringMapIS_E
    _ZN16RTCRestAnyObject10assignCopyERKS_
    _ZN16RTCRestAnyObject10fromStringERK9RTCStringPKcP9RTERRINFOj
    _ZN16RTCRestAnyObject11assignValueEPKc
    _ZN16RTCRestAnyObject11assignValueERK9RTCString
    _ZN16RTCRestAnyObject11assignValueEb
    _ZN16RTCRestAnyObject11assignValueEd
    _ZN16RTCRestAnyObject11assignValueEi
    _ZN16RTCRestAnyObject11assignValueEs
    _ZN16RTCRestAnyObject11assignValueEx
    _ZN16RTCRestAnyObject14createInstanceEv
    _ZN16RTCRestAnyObject14resetToDefaultEv
    _ZN16RTCRestAnyObject19deserializeFromJsonERK17RTCRestJsonCursor
    _ZN16RTCRestAnyObject27deserializeInstanceFromJsonERK17RTCRestJsonCursorPP17RTCRestObjectBase
    _ZN16RTCRestAnyObject7setNullEv
    _ZN16RTCRestAnyObjectC1ERKS_
    _ZN16RTCRestAnyObjectC1Ev
    _ZN16RTCRestAnyObjectC2ERKS_
    _ZN16RTCRestAnyObjectC2Ev
    _ZN16RTCRestAnyObjectD0Ev
    _ZN16RTCRestAnyObjectD1Ev
    _ZN16RTCRestAnyObjectD2Ev
    _ZN16RTCRestAnyObjectaSERKS_
    _ZN16RTCRestArrayBase10fromStringERK9RTCStringPKcP9RTERRINFOj
    _ZN16RTCRestArrayBase12insertWorkerEmP17RTCRestObjectBaseb
    _ZN16RTCRestArrayBase14ensureCapacityEm
    _ZN16RTCRestArrayBase14resetToDefaultEv
    _ZN16RTCRestArrayBase16insertCopyWorkerEmRK17RTCRestObjectBaseb
    _ZN16RTCRestArrayBase19deserializeFromJsonERK17RTCRestJsonCursor
    _ZN16RTCRestArrayBase22copyArrayWorkerNoThrowERKS_
    _ZN16RTCRestArrayBase23copyArrayWorkerMayThrowERKS_
    _ZN16RTCRestArrayBase5clearEv
    _ZN16RTCRestArrayBase8removeAtEm
    _ZN16RTCRestArrayBaseC2Ev
    _ZN16RTCRestArrayBaseD0Ev
    _ZN16RTCRestArrayBaseD1Ev
    _ZN16RTCRestArrayBaseD2Ev
    _ZN17RTCRestDataObject10assignCopyERKS_
    _ZN17RTCRestDataObject14resetToDefaultEv
    _ZN17RTCRestDataObject19deserializeFromJsonERK17RTCRestJsonCursor
    _ZN17RTCRestDataObject25deserializeMemberFromJsonERK17RTCRestJsonCursorm
    _ZN17RTCRestDataObjectC2ERKS_
    _ZN17RTCRestDataObjectC2Ev
    _ZN17RTCRestDataObjectD0Ev
    _ZN17RTCRestDataObjectD1Ev
    _ZN17RTCRestDataObjectD2Ev
    _ZN17RTCRestDataObjectaSERKS_
    _ZN17RTCRestObjectBase10fromStringERK9RTCStringPKcP9RTERRINFOj
    _ZN17RTCRestObjectBase10setNotNullEv
    _ZN17RTCRestObjectBase7setNullEv
    _ZN17RTCRestObjectBaseC2ERKS_
    _ZN17RTCRestObjectBaseC2Ev
    _ZN17RTCRestObjectBaseD0Ev
    _ZN17RTCRestObjectBaseD1Ev
    _ZN17RTCRestObjectBaseD2Ev
    _ZN17RTCRestOutputBase10beginArrayEv
    _ZN17RTCRestOutputBase11beginObjectEv
    _ZN17RTCRestOutputBase14valueSeparatorEv
    _ZN17RTCRestOutputBase20printfOutputCallbackEPvPKcm
    _ZN17RTCRestOutputBase21valueSeparatorAndNameEPKcm
    _ZN17RTCRestOutputBase7vprintfEPKcP13__va_list_tag ; not-arm64
    _ZN17RTCRestOutputBase7vprintfEPKcPc               ; only-arm64
    _ZN17RTCRestOutputBase8endArrayEj
    _ZN17RTCRestOutputBase9endObjectEj
    _ZN17RTCRestOutputBase9nullValueEv
    _ZN17RTCRestOutputBaseC2Ev
    _ZN17RTCRestOutputBaseD0Ev
    _ZN17RTCRestOutputBaseD1Ev
    _ZN17RTCRestOutputBaseD2Ev
    _ZN20RTCRestClientApiBase12setServerUrlEPKc
    _ZN20RTCRestClientApiBase14ociSignRequestEP14RTHTTPINTERNALRK9RTCString12RTHTTPMETHODS4_jP10RTCRKEYINTS4_
    _ZN20RTCRestClientApiBase15setServerSchemeEPKc
    _ZN20RTCRestClientApiBase16setServerUrlPartEPKcmmS1_m
    _ZN20RTCRestClientApiBase17setServerBasePathEPKc
    _ZN20RTCRestClientApiBase18reinitHttpInstanceEv
    _ZN20RTCRestClientApiBase18setServerAuthorityEPKc
    _ZN20RTCRestClientApiBase6doCallERK24RTCRestClientRequestBase12RTHTTPMETHODP25RTCRestClientResponseBasePKcj
    _ZN20RTCRestClientApiBase9setCAFileEPKc
    _ZN20RTCRestClientApiBase9setCAFileERK9RTCString
    _ZN20RTCRestClientApiBase9xmitReadyEP14RTHTTPINTERNALRK9RTCString12RTHTTPMETHODS4_j
    _ZN20RTCRestClientApiBaseC2Ev
    _ZN20RTCRestClientApiBaseD0Ev
    _ZN20RTCRestClientApiBaseD1Ev
    _ZN20RTCRestClientApiBaseD2Ev
    _ZN20RTCRestStringMapBase11putNewValueEPP17RTCRestObjectBasePKcmb
    _ZN20RTCRestStringMapBase11putNewValueEPP17RTCRestObjectBaseRK9RTCStringb
    _ZN20RTCRestStringMapBase13putCopyWorkerEPKcRK17RTCRestObjectBasebm
    _ZN20RTCRestStringMapBase14resetToDefaultEv
    _ZN20RTCRestStringMapBase19deserializeFromJsonERK17RTCRestJsonCursor
    _ZN20RTCRestStringMapBase20copyMapWorkerNoThrowERKS_
    _ZN20RTCRestStringMapBase21copyMapWorkerMayThrowERKS_
    _ZN20RTCRestStringMapBase29stringSpaceDestructorCallbackEP14RTSTRSPACECOREPv
    _ZN20RTCRestStringMapBase5clearEv
    _ZN20RTCRestStringMapBase6removeEPKc
    _ZN20RTCRestStringMapBase6removeERK9RTCString
    _ZN20RTCRestStringMapBase9getWorkerEPKc
    _ZN20RTCRestStringMapBase9putWorkerEPKcP17RTCRestObjectBasebm
    _ZN20RTCRestStringMapBaseC2Ev
    _ZN20RTCRestStringMapBaseD0Ev
    _ZN20RTCRestStringMapBaseD1Ev
    _ZN20RTCRestStringMapBaseD2Ev
    _ZN21RTCRestBinaryResponse10assignCopyEPKvm
    _ZN21RTCRestBinaryResponse10assignCopyERK13RTCRestBinary
    _ZN21RTCRestBinaryResponse10assignCopyERKS_
    _ZN21RTCRestBinaryResponse14assignReadOnlyEPKvm
    _ZN21RTCRestBinaryResponse14createInstanceEv
    _ZN21RTCRestBinaryResponse14receivePrepareEP14RTHTTPINTERNALj
    _ZN21RTCRestBinaryResponse14resetToDefaultEv
    _ZN21RTCRestBinaryResponse15assignWriteableEPvm
    _ZN21RTCRestBinaryResponse15receiveCompleteEP14RTHTTPINTERNAL
    _ZN21RTCRestBinaryResponse18setMaxDownloadSizeEm
    _ZN21RTCRestBinaryResponse19receiveHttpCallbackEP14RTHTTPINTERNALPKvmjyyPv
    _ZN21RTCRestBinaryResponse19setConsumerCallbackEPFiPS_PKvmjyyEPv   ; before-noexcept
    _ZN21RTCRestBinaryResponse19setConsumerCallbackEPDoFiPS_PKvmjyyEPv ; after-noexcept
    _ZN21RTCRestBinaryResponseC1Ev
    _ZN21RTCRestBinaryResponseC2Ev
    _ZN21RTCRestOutputToString6outputEPKcm
    _ZN21RTCRestOutputToString8finalizeEv
    _ZN21RTCRestOutputToStringC1EP9RTCStringb
    _ZN21RTCRestOutputToStringC2EP9RTCStringb
    _ZN21RTCRestOutputToStringD0Ev
    _ZN21RTCRestOutputToStringD1Ev
    _ZN21RTCRestOutputToStringD2Ev
    _ZN21RTCRestPolyDataObject14resetToDefaultEv
    _ZN21RTCRestPolyDataObjectC2ERKS_
    _ZN21RTCRestPolyDataObjectC2Ev
    _ZN21RTCRestPolyDataObjectD0Ev
    _ZN21RTCRestPolyDataObjectD1Ev
    _ZN21RTCRestPolyDataObjectD2Ev
    _ZN21RTCRestPolyDataObjectaSERKS_
    _ZN21RTCRestStringEnumBase10assignCopyERKS_
    _ZN21RTCRestStringEnumBase10fromStringERK9RTCStringPKcP9RTERRINFOj
    _ZN21RTCRestStringEnumBase11setByStringEPKcm
    _ZN21RTCRestStringEnumBase11setByStringERK9RTCString
    _ZN21RTCRestStringEnumBase12enumToStringEiPm
    _ZN21RTCRestStringEnumBase12stringToEnumEPKcm
    _ZN21RTCRestStringEnumBase12stringToEnumERK9RTCString
    _ZN21RTCRestStringEnumBase14resetToDefaultEv
    _ZN21RTCRestStringEnumBase19deserializeFromJsonERK17RTCRestJsonCursor
    _ZN21RTCRestStringEnumBase9setWorkerEi
    _ZN21RTCRestStringEnumBaseC2ERKS_
    _ZN21RTCRestStringEnumBaseC2Ev
    _ZN21RTCRestStringEnumBaseD0Ev
    _ZN21RTCRestStringEnumBaseD1Ev
    _ZN21RTCRestStringEnumBaseD2Ev
    _ZN21RTCRestStringEnumBaseaSERKS_
    _ZN22RTCRestBinaryParameter10assignCopyEPKvm
    _ZN22RTCRestBinaryParameter10assignCopyERK13RTCRestBinary
    _ZN22RTCRestBinaryParameter10assignCopyERKS_
    _ZN22RTCRestBinaryParameter14assignReadOnlyEPKvm
    _ZN22RTCRestBinaryParameter14createInstanceEv
    _ZN22RTCRestBinaryParameter14resetToDefaultEv
    _ZN22RTCRestBinaryParameter14setContentTypeEPKc
    _ZN22RTCRestBinaryParameter15assignWriteableEPvm
    _ZN22RTCRestBinaryParameter16xmitHttpCallbackEP14RTHTTPINTERNALPvmyPmS2_
    _ZN22RTCRestBinaryParameter19setProducerCallbackEPFiPS_PvmyPmES1_y   ; before-noexcept
    _ZN22RTCRestBinaryParameter19setProducerCallbackEPDoFiPS_PvmyPmES1_y ; after-noexcept
    _ZN22RTCRestBinaryParameterC1Ev
    _ZN22RTCRestBinaryParameterC2Ev
    _ZN23RTCRestOutputPrettyBase10beginArrayEv
    _ZN23RTCRestOutputPrettyBase11beginObjectEv
    _ZN23RTCRestOutputPrettyBase14valueSeparatorEv
    _ZN23RTCRestOutputPrettyBase17outputIndentationEv
    _ZN23RTCRestOutputPrettyBase21valueSeparatorAndNameEPKcm
    _ZN23RTCRestOutputPrettyBase8endArrayEj
    _ZN23RTCRestOutputPrettyBase9endObjectEj
    _ZN23RTCRestOutputPrettyBaseC2Ev
    _ZN23RTCRestOutputPrettyBaseD0Ev
    _ZN23RTCRestOutputPrettyBaseD1Ev
    _ZN23RTCRestOutputPrettyBaseD2Ev
    _ZN24RTCRestClientRequestBaseC2ERKS_
    _ZN24RTCRestClientRequestBaseC2Ev
    _ZN24RTCRestClientRequestBaseD0Ev
    _ZN24RTCRestClientRequestBaseD1Ev
    _ZN24RTCRestClientRequestBaseD2Ev
    _ZN24RTCRestClientRequestBaseaSERKS_
    _ZN24RTCRestJsonPrimaryCursor12unknownFieldERK17RTCRestJsonCursor
    _ZN24RTCRestJsonPrimaryCursor8addErrorERK17RTCRestJsonCursoriPKcz
    _ZN25RTCRestClientResponseBase11consumeBodyEPKcm
    _ZN25RTCRestClientResponseBase11copyErrInfoEPK9RTERRINFO
    _ZN25RTCRestClientResponseBase12receiveFinalEv
    _ZN25RTCRestClientResponseBase13consumeHeaderEjPKcmS1_m
    _ZN25RTCRestClientResponseBase13deleteErrInfoEv
    _ZN25RTCRestClientResponseBase14receivePrepareEP14RTHTTPINTERNAL
    _ZN25RTCRestClientResponseBase15deserializeBodyEPKcmS1_
    _ZN25RTCRestClientResponseBase15receiveCompleteEiP14RTHTTPINTERNAL
    _ZN25RTCRestClientResponseBase17deserializeHeaderEP17RTCRestObjectBasePKcmjS3_
    _ZN25RTCRestClientResponseBase18getErrInfoInternalEv
    _ZN25RTCRestClientResponseBase24PrimaryJsonCursorForBody12unknownFieldERK17RTCRestJsonCursor
    _ZN25RTCRestClientResponseBase24PrimaryJsonCursorForBody8addErrorERK17RTCRestJsonCursoriPKcz
    _ZN25RTCRestClientResponseBase24PrimaryJsonCursorForBodyC1EP12RTJSONVALINTPKcPS_
    _ZN25RTCRestClientResponseBase24PrimaryJsonCursorForBodyC2EP12RTJSONVALINTPKcPS_
    _ZN25RTCRestClientResponseBase24deserializeHeaderIntoMapEP20RTCRestStringMapBasePKcmS3_mjS3_
    _ZN25RTCRestClientResponseBase25receiveHttpHeaderCallbackEP14RTHTTPINTERNALjPKcmS3_mPv
    _ZN25RTCRestClientResponseBase29deserializeBodyFromJsonCursorERK17RTCRestJsonCursor
    _ZN25RTCRestClientResponseBase5resetEv
    _ZN25RTCRestClientResponseBase8addErrorEiPKcz
    _ZN25RTCRestClientResponseBaseC2ERKS_
    _ZN25RTCRestClientResponseBaseC2Ev
    _ZN25RTCRestClientResponseBaseD0Ev
    _ZN25RTCRestClientResponseBaseD1Ev
    _ZN25RTCRestClientResponseBaseD2Ev
    _ZN25RTCRestClientResponseBaseaSERKS_
    _ZN27RTCRestOutputPrettyToString6outputEPKcm
    _ZN27RTCRestOutputPrettyToString8finalizeEv
    _ZN27RTCRestOutputPrettyToStringC1EP9RTCStringb
    _ZN27RTCRestOutputPrettyToStringC2EP9RTCStringb
    _ZN27RTCRestOutputPrettyToStringD0Ev
    _ZN27RTCRestOutputPrettyToStringD1Ev
    _ZN27RTCRestOutputPrettyToStringD2Ev
    _ZN3xml11ElementNode16setAttributePathEPKcRK9RTCString
    _ZN3xml12XmlMemParser4readEPKvmRK9RTCStringRNS_8DocumentE
    _ZN3xml13XmlFileParser4readERK9RTCStringRNS_8DocumentE
    _ZN3xml15XmlStringWriter5writeERKNS_8DocumentEP9RTCString
    _ZN9RTCString10stripRightEv
    _ZN9RTCString11findReplaceEcc
    _ZN9RTCString12appendPrintfEPKcz
    _ZN9RTCString12appendWorkerEPKcm
    _ZN9RTCString13appendNoThrowEPKc
    _ZN9RTCString13appendNoThrowEPKcm
    _ZN9RTCString13appendNoThrowERKS_
    _ZN9RTCString13appendNoThrowERKS_mm
    _ZN9RTCString13appendNoThrowEc
    _ZN9RTCString13appendPrintfVEPKcP13__va_list_tag ; not-arm64
    _ZN9RTCString13appendPrintfVEPKcPc               ; only-arm64
    _ZN9RTCString13assignNoThrowEPKc
    _ZN9RTCString13assignNoThrowEPKcm
    _ZN9RTCString13assignNoThrowERKS_
    _ZN9RTCString13assignNoThrowERKS_mm
    _ZN9RTCString13assignNoThrowEmc
    _ZN9RTCString13printfNoThrowEPKcz
    _ZN9RTCString13replaceWorkerEmmPKcm
    _ZN9RTCString14printfVNoThrowEPKcP13__va_list_tag ; not-arm64
    _ZN9RTCString14printfVNoThrowEPKcPc               ; only-arm64
    _ZN9RTCString14replaceNoThrowEmmPKc
    _ZN9RTCString14replaceNoThrowEmmPKcm
    _ZN9RTCString14replaceNoThrowEmmRKS_
    _ZN9RTCString14replaceNoThrowEmmRKS_mm
    _ZN9RTCString15appendCodePointEj
    _ZN9RTCString19appendPrintfNoThrowEPKcz
    _ZN9RTCString19appendWorkerNoThrowEPKcm
    _ZN9RTCString20appendPrintfVNoThrowEPKcP13__va_list_tag ; not-arm64
    _ZN9RTCString20appendPrintfVNoThrowEPKcPc               ; only-arm64
    _ZN9RTCString20printfOutputCallbackEPvPKcm
    _ZN9RTCString20replaceWorkerNoThrowEmmPKcm
    _ZN9RTCString22appendCodePointNoThrowEj
    _ZN9RTCString27printfOutputCallbackNoThrowEPvPKcm
    _ZN9RTCString4joinERK7RTCListIS_PS_ERKS_
    _ZN9RTCString4nposE DATA
    _ZN9RTCString5eraseEmm
    _ZN9RTCString5stripEv
    _ZN9RTCString6appendEPKc
    _ZN9RTCString6appendEPKcm
    _ZN9RTCString6appendERKS_
    _ZN9RTCString6appendERKS_mm
    _ZN9RTCString6appendEc
    _ZN9RTCString6assignEPKc
    _ZN9RTCString6assignEPKcm
    _ZN9RTCString6assignERKS_
    _ZN9RTCString6assignERKS_mm
    _ZN9RTCString6assignEmc
    _ZN9RTCString6joinExERK7RTCListIS_PS_ERKS_S6_
    _ZN9RTCString6printfEPKcz
    _ZN9RTCString7printfVEPKcP13__va_list_tag ; not-arm64
    _ZN9RTCString7printfVEPKcPc               ; only-arm64
    _ZN9RTCString7replaceEmmPKc
    _ZN9RTCString7replaceEmmPKcm
    _ZN9RTCString7replaceEmmRKS_
    _ZN9RTCString7replaceEmmRKS_mm
    _ZN9RTCString9stripLeftEv
    _ZNK11RTCRestBool15serializeAsJsonER17RTCRestOutputBase
    _ZNK11RTCRestBool8toStringEP9RTCStringj
    _ZNK11RTCRestBool8typeNameEv
    _ZNK11RTCRestBool9baseCloneEv
    _ZNK11RTCRestBool9typeClassEv
    _ZNK11RTCRestDate15serializeAsJsonER17RTCRestOutputBase
    _ZNK11RTCRestDate8toStringEP9RTCStringj
    _ZNK11RTCRestDate8typeNameEv
    _ZNK11RTCRestDate9baseCloneEv
    _ZNK11RTCRestDate9typeClassEv
    _ZNK12RTCRestInt1615serializeAsJsonER17RTCRestOutputBase
    _ZNK12RTCRestInt168toStringEP9RTCStringj
    _ZNK12RTCRestInt168typeNameEv
    _ZNK12RTCRestInt169baseCloneEv
    _ZNK12RTCRestInt169typeClassEv
    _ZNK12RTCRestInt3215serializeAsJsonER17RTCRestOutputBase
    _ZNK12RTCRestInt328toStringEP9RTCStringj
    _ZNK12RTCRestInt328typeNameEv
    _ZNK12RTCRestInt329baseCloneEv
    _ZNK12RTCRestInt329typeClassEv
    _ZNK12RTCRestInt6415serializeAsJsonER17RTCRestOutputBase
    _ZNK12RTCRestInt648toStringEP9RTCStringj
    _ZNK12RTCRestInt648typeNameEv
    _ZNK12RTCRestInt649baseCloneEv
    _ZNK12RTCRestInt649typeClassEv
    _ZNK13RTCRestBinary15serializeAsJsonER17RTCRestOutputBase
    _ZNK13RTCRestBinary8toStringEP9RTCStringj
    _ZNK13RTCRestBinary8typeNameEv
    _ZNK13RTCRestBinary9baseCloneEv
    _ZNK13RTCRestBinary9typeClassEv
    _ZNK13RTCRestDouble15serializeAsJsonER17RTCRestOutputBase
    _ZNK13RTCRestDouble8toStringEP9RTCStringj
    _ZNK13RTCRestDouble8typeNameEv
    _ZNK13RTCRestDouble9baseCloneEv
    _ZNK13RTCRestDouble9typeClassEv
    _ZNK13RTCRestString15serializeAsJsonER17RTCRestOutputBase
    _ZNK13RTCRestString8toStringEP9RTCStringj
    _ZNK13RTCRestString8typeNameEv
    _ZNK13RTCRestString9baseCloneEv
    _ZNK13RTCRestString9typeClassEv
    _ZNK16RTCRestAnyObject15serializeAsJsonER17RTCRestOutputBase
    _ZNK16RTCRestAnyObject8toStringEP9RTCStringj
    _ZNK16RTCRestAnyObject8typeNameEv
    _ZNK16RTCRestAnyObject9baseCloneEv
    _ZNK16RTCRestAnyObject9typeClassEv
    _ZNK16RTCRestArrayBase15serializeAsJsonER17RTCRestOutputBase
    _ZNK16RTCRestArrayBase8toStringEP9RTCStringj
    _ZNK16RTCRestArrayBase8typeNameEv
    _ZNK16RTCRestArrayBase9baseCloneEv
    _ZNK16RTCRestArrayBase9typeClassEv
    _ZNK17RTCRestDataObject15serializeAsJsonER17RTCRestOutputBase
    _ZNK17RTCRestDataObject22serializeMembersAsJsonER17RTCRestOutputBase
    _ZNK17RTCRestDataObject9typeClassEv
    _ZNK17RTCRestObjectBase8toStringEP9RTCStringj
    _ZNK17RTCRestObjectBase8toStringEv
    _ZNK20RTCRestClientApiBase12getServerUrlEv
    _ZNK20RTCRestStringMapBase11containsKeyEPKc
    _ZNK20RTCRestStringMapBase11containsKeyERK9RTCString
    _ZNK20RTCRestStringMapBase15serializeAsJsonER17RTCRestOutputBase
    _ZNK20RTCRestStringMapBase4sizeEv
    _ZNK20RTCRestStringMapBase8typeNameEv
    _ZNK20RTCRestStringMapBase9baseCloneEv
    _ZNK20RTCRestStringMapBase9getWorkerEPKc
    _ZNK20RTCRestStringMapBase9typeClassEv
    _ZNK21RTCRestBinaryResponse8typeNameEv
    _ZNK21RTCRestBinaryResponse9baseCloneEv
    _ZNK21RTCRestPolyDataObject7isChildEv
    _ZNK21RTCRestStringEnumBase11cloneWorkerEPS_
    _ZNK21RTCRestStringEnumBase15serializeAsJsonER17RTCRestOutputBase
    _ZNK21RTCRestStringEnumBase8toStringEP9RTCStringj
    _ZNK21RTCRestStringEnumBase9getStringEv
    _ZNK21RTCRestStringEnumBase9typeClassEv
    _ZNK22RTCRestBinaryParameter11xmitPrepareEP14RTHTTPINTERNAL
    _ZNK22RTCRestBinaryParameter12xmitCompleteEP14RTHTTPINTERNAL
    _ZNK22RTCRestBinaryParameter8typeNameEv
    _ZNK22RTCRestBinaryParameter9baseCloneEv
    _ZNK24RTCRestClientRequestBase16doPathParametersEP9RTCStringPKcmPKNS_13PATHPARAMDESCEPNS_14PATHPARAMSTATEEm
    _ZNK24RTCRestClientRequestBase17doQueryParametersEP9RTCStringPKNS_14QUERYPARAMDESCEPPK17RTCRestObjectBasem
    _ZNK24RTCRestClientRequestBase18doHeaderParametersEP14RTHTTPINTERNALPKNS_15HEADERPARAMDESCEPPK17RTCRestObjectBasem
    _ZNK24RTCRestJsonPrimaryCursor7getPathERK17RTCRestJsonCursorPcm
    _ZNK3xml11ElementNode17getAttributeValueEPKcP9RTCStringS2_
    _ZNK3xml11ElementNode21getAttributeValuePathEPKcP9RTCStringS2_
    _ZNK9RTCString10startsWithERKS_NS_15CaseSensitivityE
    _ZNK9RTCString14startsWithWordEPKcNS_15CaseSensitivityE
    _ZNK9RTCString14startsWithWordERKS_NS_15CaseSensitivityE
    _ZNK9RTCString4findEPKS_m
    _ZNK9RTCString4findEPKcm
    _ZNK9RTCString4findERKS_m
    _ZNK9RTCString4findEcm
    _ZNK9RTCString5countEc
    _ZNK9RTCString5splitERKS_NS_9SplitModeE
    _ZNK9RTCString5toIntERj
    _ZNK9RTCString5toIntERy
    _ZNK9RTCString8containsEPKcNS_15CaseSensitivityE
    _ZNK9RTCString8containsERKS_NS_15CaseSensitivityE
    _ZNK9RTCString8endsWithERKS_NS_15CaseSensitivityE
    _ZNK9RTCString8substrCPEmm
    _ZTI11RTCRestBool DATA
    _ZTI11RTCRestDate DATA
    _ZTI12RTCRestInt16 DATA
    _ZTI12RTCRestInt32 DATA
    _ZTI12RTCRestInt64 DATA
    _ZTI13RTCRestBinary DATA
    _ZTI13RTCRestDouble DATA
    _ZTI13RTCRestString DATA
    _ZTI16RTCRestAnyObject DATA
    _ZTI16RTCRestArrayBase DATA
    _ZTI17RTCRestDataObject DATA
    _ZTI17RTCRestObjectBase DATA
    _ZTI17RTCRestOutputBase DATA
    _ZTI20RTCRestClientApiBase DATA
    _ZTI20RTCRestStringMapBase DATA
    _ZTI21RTCRestBinaryResponse DATA
    _ZTI21RTCRestOutputToString DATA
    _ZTI21RTCRestPolyDataObject DATA
    _ZTI21RTCRestStringEnumBase DATA
    _ZTI22RTCRestBinaryParameter DATA
    _ZTI23RTCRestOutputPrettyBase DATA
    _ZTI24RTCRestClientRequestBase DATA
    _ZTI24RTCRestJsonPrimaryCursor DATA
    _ZTI25RTCRestClientResponseBase DATA
    _ZTI27RTCRestOutputPrettyToString DATA
    _ZTI9RTCString DATA
    _ZTIN25RTCRestClientResponseBase24PrimaryJsonCursorForBodyE DATA
    _ZTS11RTCRestBool DATA
    _ZTS11RTCRestDate DATA
    _ZTS12RTCRestInt16 DATA
    _ZTS12RTCRestInt32 DATA
    _ZTS12RTCRestInt64 DATA
    _ZTS13RTCRestBinary DATA
    _ZTS13RTCRestDouble DATA
    _ZTS13RTCRestString DATA
    _ZTS16RTCRestAnyObject DATA
    _ZTS16RTCRestArrayBase DATA
    _ZTS17RTCRestDataObject DATA
    _ZTS17RTCRestObjectBase DATA
    _ZTS17RTCRestOutputBase DATA
    _ZTS20RTCRestClientApiBase DATA
    _ZTS20RTCRestStringMapBase DATA
    _ZTS21RTCRestBinaryResponse DATA
    _ZTS21RTCRestOutputToString DATA
    _ZTS21RTCRestPolyDataObject DATA
    _ZTS21RTCRestStringEnumBase DATA
    _ZTS22RTCRestBinaryParameter DATA
    _ZTS23RTCRestOutputPrettyBase DATA
    _ZTS24RTCRestClientRequestBase DATA
    _ZTS24RTCRestJsonPrimaryCursor DATA
    _ZTS25RTCRestClientResponseBase DATA
    _ZTS27RTCRestOutputPrettyToString DATA
    _ZTS9RTCString DATA
    _ZTSN25RTCRestClientResponseBase24PrimaryJsonCursorForBodyE DATA
    _ZTV11RTCRestBool DATA
    _ZTV11RTCRestDate DATA
    _ZTV12RTCRestInt16 DATA
    _ZTV12RTCRestInt32 DATA
    _ZTV12RTCRestInt64 DATA
    _ZTV13RTCRestBinary DATA
    _ZTV13RTCRestDouble DATA
    _ZTV13RTCRestString DATA
    _ZTV16RTCRestAnyObject DATA
    _ZTV16RTCRestArrayBase DATA
    _ZTV17RTCRestDataObject DATA
    _ZTV17RTCRestObjectBase DATA
    _ZTV17RTCRestOutputBase DATA
    _ZTV20RTCRestClientApiBase DATA
    _ZTV20RTCRestStringMapBase DATA
    _ZTV21RTCRestBinaryResponse DATA
    _ZTV21RTCRestOutputToString DATA
    _ZTV21RTCRestPolyDataObject DATA
    _ZTV21RTCRestStringEnumBase DATA
    _ZTV22RTCRestBinaryParameter DATA
    _ZTV23RTCRestOutputPrettyBase DATA
    _ZTV24RTCRestClientRequestBase DATA
    _ZTV24RTCRestJsonPrimaryCursor DATA
    _ZTV25RTCRestClientResponseBase DATA
    _ZTV27RTCRestOutputPrettyToString DATA
    _ZTVN25RTCRestClientResponseBase24PrimaryJsonCursorForBodyE DATA
    _ZThn16_N13RTCRestStringD0Ev
    _ZThn16_N13RTCRestStringD1Ev
    _ZplPKcRK9RTCString
    _ZplRK9RTCStringPKc
    _ZplRK9RTCStringS1_
